Component: ARM Compiler 5.05 update 1 (build 106) Tool: armlink [4d0efa]

==============================================================================

Section Cross References

    stm32f10x_adc.o(.text) refers to stm32f10x_rcc.o(.text) for RCC_APB2PeriphResetCmd
    stm32f10x_bkp.o(.text) refers to stm32f10x_rcc.o(.text) for RCC_BackupResetCmd
    stm32f10x_can.o(.text) refers to stm32f10x_rcc.o(.text) for RCC_APB1PeriphResetCmd
    stm32f10x_cec.o(.text) refers to stm32f10x_rcc.o(.text) for RCC_APB1PeriphResetCmd
    stm32f10x_dac.o(.text) refers to stm32f10x_rcc.o(.text) for RCC_APB1PeriphResetCmd
    stm32f10x_gpio.o(.text) refers to stm32f10x_rcc.o(.text) for RCC_APB2PeriphResetCmd
    stm32f10x_i2c.o(.text) refers to stm32f10x_rcc.o(.text) for RCC_APB1PeriphResetCmd
    stm32f10x_pwr.o(.text) refers to stm32f10x_rcc.o(.text) for RCC_APB1PeriphResetCmd
    stm32f10x_rcc.o(.text) refers to stm32f10x_rcc.o(.data) for APBAHBPrescTable
    stm32f10x_spi.o(.text) refers to stm32f10x_rcc.o(.text) for RCC_APB2PeriphResetCmd
    stm32f10x_tim.o(.text) refers to stm32f10x_rcc.o(.text) for RCC_APB2PeriphResetCmd
    stm32f10x_usart.o(.text) refers to stm32f10x_rcc.o(.text) for RCC_APB2PeriphResetCmd
    stm32f10x_wwdg.o(.text) refers to stm32f10x_rcc.o(.text) for RCC_APB1PeriphResetCmd
    delay.o(.text) refers to misc.o(.text) for SysTick_CLKSourceConfig
    delay.o(.text) refers to system_stm32f10x.o(.data) for SystemCoreClock
    delay.o(.text) refers to delay.o(.data) for fac_us
    sys.o(.text) refers to misc.o(.text) for NVIC_PriorityGroupConfig
    usmart.o(.text) refers to usmart_str.o(.text) for usmart_get_cmdname
    usmart.o(.text) refers to lcd3033.o(.text) for lcd_printf
    usmart.o(.text) refers to stm32f10x_rcc.o(.text) for RCC_APB1PeriphClockCmd
    usmart.o(.text) refers to stm32f10x_tim.o(.text) for TIM_TimeBaseInit
    usmart.o(.text) refers to usmart.o(.data) for sys_cmd_tab
    usmart.o(.text) refers to usmart_config.o(.data) for usmart_dev
    usmart.o(.text) refers to misc.o(.text) for NVIC_Init
    usmart.o(.text) refers to usart.o(.text) for Read_USART_buffer
    usmart.o(.text) refers to usart1.o(.text) for uart1_init
    usmart.o(.text) refers to system_stm32f10x.o(.data) for SystemCoreClock
    usmart.o(.text) refers to sup_fun.o(.text) for Valve_Drive
    usmart.o(.text) refers to delay.o(.text) for delay_ms
    usmart.o(.text) refers to reg_config.o(.text) for RevertStartupScreen
    usmart.o(.data) refers to usmart.o(.conststring) for .conststring
    usmart_config.o(.text) refers to usart.o(.text) for Uart_printf
    usmart_config.o(.text) refers to base_config.o(.bss) for Fixture
    usmart_config.o(.data) refers to usmart.o(.text) for read_addr
    usmart_config.o(.data) refers to usmart_config.o(.conststring) for .conststring
    usmart_config.o(.data) refers to usmart_config.o(.text) for Mode_Set
    usmart_config.o(.data) refers to sup_fun.o(.text) for Relay_Drive
    usmart_config.o(.data) refers to delay.o(.text) for delay_ms
    usmart_config.o(.data) refers to short.o(.text) for Short_Test_Function
    usmart_config.o(.data) refers to open.o(.text) for Open_Test_Function
    usmart_config.o(.data) refers to 24cxx.o(.text) for AT24CXX_WriteLenByte
    usmart_str.o(.text) refers to usmart_config.o(.data) for usmart_dev
    startup_stm32f10x_hd.o(STACK) refers (Special) to heapauxi.o(.text) for __use_two_region_memory
    startup_stm32f10x_hd.o(HEAP) refers (Special) to heapauxi.o(.text) for __use_two_region_memory
    startup_stm32f10x_hd.o(RESET) refers (Special) to heapauxi.o(.text) for __use_two_region_memory
    startup_stm32f10x_hd.o(RESET) refers to startup_stm32f10x_hd.o(STACK) for __initial_sp
    startup_stm32f10x_hd.o(RESET) refers to startup_stm32f10x_hd.o(.text) for Reset_Handler
    startup_stm32f10x_hd.o(RESET) refers to stm32f10x_it.o(.text) for NMI_Handler
    startup_stm32f10x_hd.o(RESET) refers to motor.o(.text) for EXTI0_IRQHandler
    startup_stm32f10x_hd.o(RESET) refers to usmart.o(.text) for TIM2_IRQHandler
    startup_stm32f10x_hd.o(RESET) refers to fre.o(.text) for TIM3_IRQHandler
    startup_stm32f10x_hd.o(RESET) refers to sample_notice.o(.text) for TIM4_IRQHandler
    startup_stm32f10x_hd.o(RESET) refers to usart1.o(.text) for USART1_IRQHandler
    startup_stm32f10x_hd.o(RESET) refers to usart2.o(.text) for USART2_IRQHandler
    startup_stm32f10x_hd.o(RESET) refers to usart3.o(.text) for USART3_IRQHandler
    startup_stm32f10x_hd.o(RESET) refers to uart4.o(.text) for UART4_IRQHandler
    startup_stm32f10x_hd.o(RESET) refers to uart5.o(.text) for UART5_IRQHandler
    startup_stm32f10x_hd.o(.text) refers (Special) to heapauxi.o(.text) for __use_two_region_memory
    startup_stm32f10x_hd.o(.text) refers to system_stm32f10x.o(.text) for SystemInit
    startup_stm32f10x_hd.o(.text) refers to __main.o(!!!main) for __main
    startup_stm32f10x_hd.o(.text) refers to startup_stm32f10x_hd.o(HEAP) for Heap_Mem
    startup_stm32f10x_hd.o(.text) refers to startup_stm32f10x_hd.o(STACK) for Stack_Mem
    adc.o(.text) refers to stm32f10x_rcc.o(.text) for RCC_APB2PeriphClockCmd
    adc.o(.text) refers to stm32f10x_gpio.o(.text) for GPIO_Init
    adc.o(.text) refers to stm32f10x_adc.o(.text) for ADC_DeInit
    adc.o(.text) refers to dflt_clz.o(x$fpl$dflt) for __aeabi_i2d
    adc.o(.text) refers to ddiv.o(x$fpl$ddiv) for __aeabi_ddiv
    adc.o(.text) refers to dfixu.o(x$fpl$dfixu) for __aeabi_d2uiz
    adc.o(.text) refers to fflt_clz.o(x$fpl$ffltu) for __aeabi_ui2f
    adc.o(.text) refers to faddsub_clz.o(x$fpl$fadd) for __aeabi_fadd
    adc.o(.text) refers to delay.o(.text) for delay_ms
    adc.o(.text) refers to fdiv.o(x$fpl$fdiv) for __aeabi_fdiv
    adc.o(.text) refers to fmul.o(x$fpl$fmul) for __aeabi_fmul
    adc.o(.text) refers to f2d.o(x$fpl$f2d) for __aeabi_f2d
    adc.o(.text) refers to d2f.o(x$fpl$d2f) for __aeabi_d2f
    dac.o(.text) refers to stm32f10x_rcc.o(.text) for RCC_APB2PeriphClockCmd
    dac.o(.text) refers to stm32f10x_gpio.o(.text) for GPIO_Init
    dac.o(.text) refers to stm32f10x_dac.o(.text) for DAC_Init
    dac.o(.text) refers to fflt_clz.o(x$fpl$ffltu) for __aeabi_ui2f
    dac.o(.text) refers to f2d.o(x$fpl$f2d) for __aeabi_f2d
    dac.o(.text) refers to ddiv.o(x$fpl$ddiv) for __aeabi_ddiv
    dac.o(.text) refers to dmul.o(x$fpl$dmul) for __aeabi_dmul
    dac.o(.text) refers to dfixu.o(x$fpl$dfixu) for __aeabi_d2uiz
    dac.o(.text) refers to delay.o(.text) for delay_ms
    dac.o(.text) refers to dflt_clz.o(x$fpl$dfltu) for __aeabi_ui2d
    dac.o(.text) refers to ad7176.o(.text) for Read_AD7176_Average_Voltage_mV
    dac.o(.text) refers to dflt_clz.o(x$fpl$dflt) for __aeabi_i2d
    dac.o(.text) refers to dleqf.o(x$fpl$dleqf) for __aeabi_cdcmple
    dac.o(.text) refers to drleqf.o(x$fpl$drleqf) for __aeabi_cdrcmple
    dac.o(.text) refers to daddsub_clz.o(x$fpl$drsb) for __aeabi_drsub
    dac.o(.text) refers to daddsub_clz.o(x$fpl$dsub) for __aeabi_dsub
    dac.o(.text) refers to daddsub_clz.o(x$fpl$dadd) for __aeabi_dadd
    dac.o(.text) refers to lcd3033.o(.text) for cyc4or3run
    dac.o(.text) refers to sup_fun.o(.text) for Relay_Drive
    dac.o(.text) refers to other.o(.text) for Average_Fun
    dac.o(.text) refers to lcd3033.o(.data) for lcdcon
    global.o(.text) refers to stm32f10x_rcc.o(.text) for RCC_APB2PeriphClockCmd
    global.o(.text) refers to stm32f10x_gpio.o(.text) for GPIO_PinRemapConfig
    24cxx.o(.text) refers to myiic.o(.text) for IIC_Start
    24cxx.o(.text) refers to delay.o(.text) for delay_ms
    24cxx.o(.text) refers to 24cxx.o(.data) for double_data
    sup_fun.o(.text) refers to lcd3033.o(.text) for lcdreset
    sup_fun.o(.text) refers to delay.o(.text) for delay_ms
    sup_fun.o(.text) refers to sup_fun.o(.constdata) for Sensor_Name
    sup_fun.o(.text) refers to sup_fun.o(.data) for Relay_data
    sup_fun.o(.text) refers to other.o(.text) for Get_start_key_val
    sup_fun.o(.text) refers to reg_config.o(.text) for RevertStartupScreen
    sup_fun.o(.text) refers to base_config.o(.text) for Get_TEST_Station
    sup_fun.o(.text) refers to dflt_clz.o(x$fpl$dfltu) for __aeabi_ui2d
    sup_fun.o(.text) refers to daddsub_clz.o(x$fpl$dadd) for __aeabi_dadd
    sup_fun.o(.text) refers to lcd3033.o(.data) for lcdcon
    sup_fun.o(.text) refers to base_config.o(.bss) for Fixture
    sup_fun.o(.text) refers to reg_config.o(.data) for Reg
    sup_fun.o(.text) refers to test_config.o(.constdata) for Item
    sup_fun.o(.text) refers to test_config.o(.bss) for Item_Data
    sup_fun.o(.text) refers to rf.o(.data) for RF_Total_Result
    sup_fun.o(.constdata) refers to sup_fun.o(.conststring) for .conststring
    ad7176.o(.text) refers to dflt_clz.o(x$fpl$dfltu) for __aeabi_ui2d
    ad7176.o(.text) refers to dmul.o(x$fpl$dmul) for __aeabi_dmul
    ad7176.o(.text) refers to ddiv.o(x$fpl$ddiv) for __aeabi_ddiv
    ad7176.o(.text) refers to dleqf.o(x$fpl$dleqf) for __aeabi_cdcmple
    ad7176.o(.text) refers to daddsub_clz.o(x$fpl$dadd) for __aeabi_dadd
    ad7176.o(.text) refers to drleqf.o(x$fpl$drleqf) for __aeabi_cdrcmple
    ad7176.o(.text) refers to ad7176.o(.data) for AD7176_Rate_Set
    ad7176.o(.text) refers to delay.o(.text) for delay_ms
    ad7176.o(.text) refers to lcd3033.o(.text) for lcdreset
    ad7176.o(.text) refers to sup_fun.o(.text) for beep
    analog_switch.o(.text) refers to delay.o(.text) for delay_us
    analog_switch.o(.text) refers to lcd3033.o(.text) for cyc4or3run
    analog_switch.o(.text) refers to base_config.o(.bss) for Fixture
    analog_switch.o(.text) refers to other.o(.text) for step_test_mode_get_key
    lcd3033.o(.text) refers to delay.o(.text) for delay_us
    lcd3033.o(.text) refers to __2printf.o(.text) for __2printf
    lcd3033.o(.text) refers to c89vsprintf.o(.text) for __c89vsprintf
    lcd3033.o(.text) refers to lcd3033.o(.bss) for lcdarray
    lcd3033.o(.text) refers to lcd3033.o(.data) for lcdbase
    ad5933.o(.text) refers to stm32f10x_gpio.o(.text) for GPIO_Init
    ad5933.o(.text) refers to delay.o(.text) for delay_us
    ad5933.o(.text) refers to lcd3033.o(.text) for lcd_printf
    ad5933.o(.text) refers to myiic.o(.text) for IIC_Stop
    ad5933.o(.text) refers to pow.o(i.pow) for pow
    ad5933.o(.text) refers to ddiv.o(x$fpl$ddiv) for __aeabi_ddiv
    ad5933.o(.text) refers to dmul.o(x$fpl$dmul) for __aeabi_dmul
    ad5933.o(.text) refers to dfixu.o(x$fpl$dfixu) for __aeabi_d2uiz
    ad5933.o(.text) refers to dflt_clz.o(x$fpl$dflt) for __aeabi_i2d
    ad5933.o(.text) refers to sqrt.o(i.sqrt) for sqrt
    ad5933.o(.text) refers to sup_fun.o(.text) for beep
    ad5933.o(.text) refers to drleqf.o(x$fpl$drleqf) for __aeabi_cdrcmple
    ad5933.o(.text) refers to dleqf.o(x$fpl$dleqf) for __aeabi_cdcmple
    ad5933.o(.text) refers to ad5933.o(.data) for Impedance_Test
    ad5933.o(.text) refers to other.o(.text) for Average_Fun
    fre.o(.text) refers to stm32f10x_rcc.o(.text) for RCC_APB1PeriphClockCmd
    fre.o(.text) refers to stm32f10x_tim.o(.text) for TIM_DeInit
    fre.o(.text) refers to stm32f10x_gpio.o(.text) for GPIO_Init
    fre.o(.text) refers to misc.o(.text) for NVIC_Init
    fre.o(.text) refers to dmul.o(x$fpl$dmul) for __aeabi_dmul
    fre.o(.text) refers to daddsub_clz.o(x$fpl$dsub) for __aeabi_dsub
    fre.o(.text) refers to dfixu.o(x$fpl$dfixu) for __aeabi_d2uiz
    fre.o(.text) refers to dflt_clz.o(x$fpl$dfltu) for __aeabi_ui2d
    fre.o(.text) refers to ddiv.o(x$fpl$ddiv) for __aeabi_ddiv
    fre.o(.text) refers to lcd3033.o(.text) for lcdreset
    fre.o(.text) refers to delay.o(.text) for delay_ms
    fre.o(.text) refers to daddsub_clz.o(x$fpl$dadd) for __aeabi_dadd
    fre.o(.text) refers to fre.o(.data) for TIM3_COUNTER
    myiic.o(.text) refers to delay.o(.text) for delay_us
    myiic.o(.text) refers to lcd3033.o(.text) for lcd_printf
    net_iic.o(.text) refers to stm32f10x_gpio.o(.text) for GPIO_Init
    net_iic.o(.text) refers to delay.o(.text) for delay_us
    usart.o(.text) refers (Special) to use_no_semi_2.o(.text) for __use_no_semihosting
    usart.o(.text) refers to lcd3033.o(.text) for lcdputchar
    usart.o(.text) refers to c89vsprintf.o(.text) for __c89vsprintf
    usart.o(.text) refers to rt_memclr.o(.text) for __aeabi_memclr
    usart.o(.text) refers to strlen.o(.text) for strlen
    usart.o(.text) refers to delay.o(.text) for delay_ms
    usart.o(.text) refers to strncpy.o(.text) for strncpy
    usart.o(.text) refers to usart.o(.constdata) for HexTable
    usart.o(.text) refers to usart.o(.bss) for USART1_Buffer
    usart.o(.text) refers to usart.o(.data) for USART1_REV_CNT
    usart.o(.bss) refers (Special) to use_no_semi_2.o(.text) for __use_no_semihosting
    usart.o(.constdata) refers (Special) to use_no_semi_2.o(.text) for __use_no_semihosting
    usart.o(.data) refers (Special) to use_no_semi_2.o(.text) for __use_no_semihosting
    usart1.o(.text) refers to stm32f10x_rcc.o(.text) for RCC_APB2PeriphClockCmd
    usart1.o(.text) refers to stm32f10x_usart.o(.text) for USART_DeInit
    usart1.o(.text) refers to stm32f10x_gpio.o(.text) for GPIO_Init
    usart1.o(.text) refers to misc.o(.text) for NVIC_Init
    usart1.o(.text) refers to stm32f10x_dma.o(.text) for DMA_ITConfig
    usart1.o(.text) refers to cmd.o(.text) for Software_Cmd_Hander
    usart1.o(.text) refers to usart.o(.bss) for USART1_Buffer
    usart1.o(.text) refers to usart.o(.data) for USART1_REV_CNT
    usart1.o(.text) refers to base_config.o(.bss) for Fixture
    usart2.o(.text) refers to stm32f10x_rcc.o(.text) for RCC_APB1PeriphClockCmd
    usart2.o(.text) refers to stm32f10x_gpio.o(.text) for GPIO_Init
    usart2.o(.text) refers to stm32f10x_usart.o(.text) for USART_Init
    usart2.o(.text) refers to stm32f10x_dma.o(.text) for DMA_DeInit
    usart2.o(.text) refers to misc.o(.text) for NVIC_Init
    usart2.o(.text) refers to cmd.o(.text) for Software_Cmd_Hander
    usart2.o(.text) refers to usart.o(.bss) for USART2_Buffer
    usart2.o(.text) refers to usart.o(.data) for USART2_REV_CNT
    usart2.o(.text) refers to base_config.o(.bss) for Fixture
    usart3.o(.text) refers to stm32f10x_rcc.o(.text) for RCC_APB2PeriphClockCmd
    usart3.o(.text) refers to stm32f10x_gpio.o(.text) for GPIO_Init
    usart3.o(.text) refers to stm32f10x_usart.o(.text) for USART_Init
    usart3.o(.text) refers to misc.o(.text) for NVIC_Init
    usart3.o(.text) refers to stm32f10x_dma.o(.text) for DMA_DeInit
    usart3.o(.text) refers to cmd.o(.text) for Software_Cmd_Hander
    usart3.o(.text) refers to usart.o(.bss) for USART3_Buffer
    usart3.o(.text) refers to usart.o(.data) for USART3_REV_CNT
    usart3.o(.text) refers to base_config.o(.bss) for Fixture
    uart4.o(.text) refers to stm32f10x_rcc.o(.text) for RCC_APB1PeriphClockCmd
    uart4.o(.text) refers to stm32f10x_usart.o(.text) for USART_DeInit
    uart4.o(.text) refers to stm32f10x_gpio.o(.text) for GPIO_Init
    uart4.o(.text) refers to misc.o(.text) for NVIC_Init
    uart4.o(.text) refers to stm32f10x_dma.o(.text) for DMA_DeInit
    uart4.o(.text) refers to usart.o(.bss) for UART4_Buffer
    uart4.o(.text) refers to usart.o(.data) for UART4_REV_CNT
    uart5.o(.text) refers to stm32f10x_rcc.o(.text) for RCC_APB1PeriphClockCmd
    uart5.o(.text) refers to stm32f10x_usart.o(.text) for USART_DeInit
    uart5.o(.text) refers to stm32f10x_gpio.o(.text) for GPIO_Init
    uart5.o(.text) refers to misc.o(.text) for NVIC_Init
    uart5.o(.text) refers to usart.o(.bss) for UART5_Buffer
    uart5.o(.text) refers to uart5.o(.data) for counter
    uart5.o(.text) refers to usart.o(.data) for UART5_REV_CNT
    main.o(.text) refers to usart1.o(.text) for uart1_init
    main.o(.text) refers to usart2.o(.text) for uart2_init
    main.o(.text) refers to usart3.o(.text) for uart3_init
    main.o(.text) refers to barcode.o(.text) for Check_Hand_Scan
    main.o(.text) refers to zdt.o(.text) for ZDT_Software_Get_Scan_Result
    main.o(.text) refers to wtb.o(.text) for WTB_Software_Get_Scan_Result
    main.o(.text) refers to usart.o(.text) for Uart_printf
    main.o(.text) refers to sup_fun.o(.text) for Valve_Drive
    main.o(.text) refers to lcd3033.o(.text) for lcdreset
    main.o(.text) refers to y_axis.o(.text) for Up_Down_EACT_MOVE
    main.o(.text) refers to delay.o(.text) for delay_ms
    main.o(.text) refers to x_axis.o(.text) for TAKE_OFF_EACT_MOVE
    main.o(.text) refers to base_config.o(.text) for Get_TEST_Station
    main.o(.text) refers to block_check.o(.text) for Block_Recognition
    main.o(.text) refers to other.o(.text) for gettestmode
    main.o(.text) refers to data.o(.text) for Init_Test_data
    main.o(.text) refers to reg_config.o(.text) for Display_Total_Rate
    main.o(.text) refers to deqf.o(x$fpl$deqf) for __aeabi_cdcmpeq
    main.o(.text) refers to dot.o(.text) for Product_Mark_Dot
    main.o(.text) refers to global.o(.text) for ALL_GPIO_CFG
    main.o(.text) refers to uart5.o(.text) for uart5_init
    main.o(.text) refers to base_config.o(.bss) for Fixture
    main.o(.text) refers to menu.o(.data) for _Test_Mode
    main.o(.text) refers to reg_config.o(.data) for Reg
    main.o(.text) refers to test_config.o(.text) for InitTestConfig
    main.o(.text) refers to hold_data.o(.text) for Read_Hold_Reg_data
    system_stm32f10x.o(.text) refers to system_stm32f10x.o(.data) for SystemCoreClock
    other.o(.text) refers to dleqf.o(x$fpl$dleqf) for __aeabi_cdcmple
    other.o(.text) refers to daddsub_clz.o(x$fpl$dadd) for __aeabi_dadd
    other.o(.text) refers to dflt_clz.o(x$fpl$dflt) for __aeabi_i2d
    other.o(.text) refers to ddiv.o(x$fpl$ddiv) for __aeabi_ddiv
    other.o(.text) refers to sup_fun.o(.text) for Relay_Drive
    other.o(.text) refers to analog_switch.o(.text) for Close_All_Point
    other.o(.text) refers to ad7176.o(.text) for Initialize_AD7176
    other.o(.text) refers to dac.o(.text) for Self_Test_DAC_line
    other.o(.text) refers to os.o(.text) for Self_Check_Ananlog_Switch
    other.o(.text) refers to eth_config.o(.text) for InitaServerPar
    other.o(.text) refers to barcode.o(.text) for Read_Scan_Configration
    other.o(.text) refers to y_axis.o(.text) for Init_Up_Down_EACT
    other.o(.text) refers to x_axis.o(.text) for Init_Take_OFF_EACT
    other.o(.text) refers to motor.o(.text) for Initialize_Motor
    other.o(.text) refers to usb_move.o(.text) for Init_USB_Move_Motor
    other.o(.text) refers to reg_config.o(.text) for RevertStartupScreen
    other.o(.text) refers to dot.o(.text) for Dot_Pen_Replace_Check
    other.o(.text) refers to sample_notice.o(.text) for Sample_Notice_Check
    other.o(.text) refers to wtb.o(.text) for Get_Soft_Start_Status
    other.o(.text) refers to delay.o(.text) for delay_ms
    other.o(.text) refers to lcd3033.o(.text) for lcdreset
    other.o(.text) refers to base_config.o(.bss) for Fixture
    other.o(.text) refers to other.o(.data) for Trigger_Gas
    other.o(.text) refers to menu.o(.data) for _Test_Mode
    menu.o(.text) refers to lcd3033.o(.text) for lcdreset
    menu.o(.text) refers to other.o(.text) for Get_start_key_val
    menu.o(.text) refers to strcmpv7m.o(.text) for strcmp
    menu.o(.text) refers to delay.o(.text) for delay_ms
    menu.o(.text) refers to 24cxx.o(.text) for AT24CXX_Write
    menu.o(.text) refers to lcd3033.o(.data) for lcdcon
    menu.o(.text) refers to reg_config.o(.text) for RevertStartupScreen
    menu.o(.text) refers to menu.o(.data) for Parameter_List
    menu.o(.data) refers to menu.o(.conststring) for .conststring
    menu.o(.data) refers to list_test.o(.text) for List_Auto_Test_Fun
    menu.o(.data) refers to reg_config.o(.text) for clear_counter
    menu.o(.data) refers to os.o(.text) for Search_Point_Function
    menu.o(.data) refers to barcode.o(.text) for Scan_Set
    menu.o(.data) refers to debug.o(.text) for DebugMode
    menu.o(.data) refers to menu.o(.text) for System_Parameter_Set
    menu.o(.data) refers to usmart.o(.text) for Usmart_Debug_Fun
    menu.o(.data) refers to base_config.o(.text) for TEST_Station_Set
    menu.o(.data) refers to eth_config.o(.text) for ETH_NET_Set
    menu.o(.data) refers to cmd.o(.text) for Cmd_Dealy_Set
    barcode.o(.text) refers to rt_memclr.o(.text) for __aeabi_memclr
    barcode.o(.text) refers to lcd3033.o(.text) for lcdreset
    barcode.o(.text) refers to strstr.o(.text) for strstr
    barcode.o(.text) refers to 24cxx.o(.text) for AT24CXX_ReadLenByte
    barcode.o(.text) refers to dfixu.o(x$fpl$dfixu) for __aeabi_d2uiz
    barcode.o(.text) refers to strcpy.o(.text) for strcpy
    barcode.o(.text) refers to delay.o(.text) for delay_ms
    barcode.o(.text) refers to other.o(.text) for startkeywait
    barcode.o(.text) refers to strchr.o(.text) for strchr
    barcode.o(.text) refers to strlen.o(.text) for strlen
    barcode.o(.text) refers to usart1.o(.text) for uart1_init
    barcode.o(.text) refers to usart2.o(.text) for uart2_init
    barcode.o(.text) refers to usart3.o(.text) for uart3_init
    barcode.o(.text) refers to usart.o(.text) for Get_USART_buffer
    barcode.o(.text) refers to reg_config.o(.data) for Scan
    barcode.o(.text) refers to barcode.o(.data) for BarcodeReader_Name
    barcode.o(.text) refers to lcd3033.o(.data) for lcdcon
    barcode.o(.text) refers to rt_memclr_w.o(.text) for __aeabi_memclr4
    barcode.o(.text) refers to rt_memcpy_w.o(.text) for __aeabi_memcpy4
    barcode.o(.text) refers to menu.o(.text) for Choice_Menu
    barcode.o(.text) refers to dflt_clz.o(x$fpl$dfltu) for __aeabi_ui2d
    barcode.o(.text) refers to reg_config.o(.text) for Save_Single_Reg_Value
    barcode.o(.text) refers to base_config.o(.bss) for Fixture
    barcode.o(.text) refers to barcode.o(.constdata) for .constdata
    barcode.o(.data) refers to barcode.o(.conststring) for .conststring
    barcode.o(.data) refers to barcode.o(.text) for BarcodeMode_Set
    debug.o(.text) refers to lcd3033.o(.text) for lcdreset
    debug.o(.text) refers to sup_fun.o(.text) for Relay_Drive
    debug.o(.text) refers to analog_switch.o(.text) for Close_All_Point
    debug.o(.text) refers to delay.o(.text) for delay_ms
    debug.o(.text) refers to 24cxx.o(.text) for AT24CXX_WriteOneByte
    debug.o(.text) refers to os.o(.text) for Enable_RES_Test_Analog_Switch
    debug.o(.text) refers to ad7176.o(.text) for Read_AD7176_Average_Voltage_mV
    debug.o(.text) refers to ddiv.o(x$fpl$ddiv) for __aeabi_ddiv
    debug.o(.text) refers to drleqf.o(x$fpl$drleqf) for __aeabi_cdrcmple
    debug.o(.text) refers to dleqf.o(x$fpl$dleqf) for __aeabi_cdcmple
    debug.o(.text) refers to other.o(.text) for startkeywait
    debug.o(.text) refers to dac.o(.text) for Self_Test_DAC_line
    debug.o(.text) refers to lcd3033.o(.data) for lcdcon
    debug.o(.text) refers to menu.o(.text) for Menu_List_Fun
    debug.o(.text) refers to reg_config.o(.text) for RevertStartupScreen
    debug.o(.text) refers to debug.o(.data) for Debug_List
    debug.o(.data) refers to debug.o(.conststring) for .conststring
    debug.o(.data) refers to sup_fun.o(.text) for MOVE_debug_Fun
    debug.o(.data) refers to os.o(.text) for Ananlog_Switch_debug_fun
    debug.o(.data) refers to debug.o(.text) for Self_Check_Fun
    debug.o(.data) refers to os_study.o(.text) for Read_OS_Group
    debug.o(.data) refers to short.o(.text) for Short_Gooup_Edit_Check
    hold_data.o(.text) refers to dfixu.o(x$fpl$dfixu) for __aeabi_d2uiz
    hold_data.o(.text) refers to 24cxx.o(.text) for AT24CXX_WriteLenByte
    hold_data.o(.text) refers to deqf.o(x$fpl$deqf) for __aeabi_cdcmpeq
    hold_data.o(.text) refers to lcd3033.o(.text) for cyc4or3run
    hold_data.o(.text) refers to dflt_clz.o(x$fpl$dfltu) for __aeabi_ui2d
    hold_data.o(.text) refers to drleqf.o(x$fpl$drleqf) for __aeabi_cdrcmple
    hold_data.o(.text) refers to dleqf.o(x$fpl$dleqf) for __aeabi_cdcmple
    hold_data.o(.text) refers to reg_config.o(.data) for ACT_Parameter
    list_test.o(.text) refers to lcd3033.o(.text) for lcdreset
    list_test.o(.text) refers to data.o(.text) for ZDT_Software_Upload_Test_Item
    list_test.o(.text) refers to delay.o(.text) for delay_ms
    list_test.o(.text) refers to short.o(.text) for Short_Test_Function
    list_test.o(.text) refers to open.o(.text) for Open_Test_Function
    list_test.o(.text) refers to test_config.o(.text) for Get_Currennt_Type_CNT
    list_test.o(.text) refers to rf.o(.text) for Type_RF_Test_Fun
    list_test.o(.text) refers to base_config.o(.bss) for Fixture
    list_test.o(.text) refers to test_config.o(.bss) for TestConfig
    list_test.o(.text) refers to list_test.o(.bss) for Step_buffer
    list_test.o(.text) refers to list_test.o(.data) for Type_fun
    list_test.o(.data) refers to short.o(.text) for Type_OS_Short_Test_Fun
    list_test.o(.data) refers to open.o(.text) for Type_OS_Open_Test_Fun
    list_test.o(.data) refers to mr.o(.text) for Type_Isrc_Test_Fun
    list_test.o(.data) refers to kohm.o(.text) for Type_Vsrc_Test_Fun
    list_test.o(.data) refers to diode.o(.text) for Type_Diode_Test_Fun
    list_test.o(.data) refers to uf.o(.text) for Type_Cap_Test_Fun
    list_test.o(.data) refers to pf.o(.text) for Type_pF_Cap_Test_Fun
    list_test.o(.data) refers to leakage_i.o(.text) for Type_Current_Test_Fun
    list_test.o(.data) refers to ldo.o(.text) for Type_Volts_Test_Fun
    list_test.o(.data) refers to switch.o(.text) for Type_Switch_Test_Fun
    list_test.o(.data) refers to led.o(.text) for Type_LED_Test_Fun
    list_test.o(.data) refers to hall.o(.text) for Type_Hall_Test_Fun
    list_test.o(.data) refers to id.o(.text) for Type_IC_ID_Test_Fun
    list_test.o(.data) refers to rf_id.o(.text) for Type_RF_ID_Test_Fun
    test_config.o(.text) refers to test_config.o(.bss) for TestConfig
    test_config.o(.text) refers to test_config.o(.constdata) for Item
    test_config.o(.constdata) refers to test_config.o(.conststring) for .conststring
    eth_config.o(.text) refers to _printf_percent.o(.ARM.Collect$$_printf_percent$$00000000) for _printf_percent
    eth_config.o(.text) refers to _printf_d.o(.ARM.Collect$$_printf_percent$$00000009) for _printf_d
    eth_config.o(.text) refers to _printf_dec.o(.text) for _printf_int_dec
    eth_config.o(.text) refers to lcd3033.o(.text) for cyc4or3run
    eth_config.o(.text) refers to delay.o(.text) for delay_ms
    eth_config.o(.text) refers to usart.o(.text) for Get_USART_buffer
    eth_config.o(.text) refers to strstr.o(.text) for strstr
    eth_config.o(.text) refers to stm32f10x_gpio.o(.text) for GPIO_SetBits
    eth_config.o(.text) refers to eth_config.o(.bss) for NET_ETH
    eth_config.o(.text) refers to eth_config.o(.data) for NetModeName
    eth_config.o(.text) refers to __2sprintf.o(.text) for __2sprintf
    eth_config.o(.text) refers to strlen.o(.text) for strlen
    eth_config.o(.text) refers to other.o(.text) for Getkey_Cursor
    eth_config.o(.text) refers to usart1.o(.text) for uart1_init
    eth_config.o(.text) refers to usart2.o(.text) for uart2_init
    eth_config.o(.text) refers to usart3.o(.text) for uart3_init
    eth_config.o(.text) refers to rt_memclr_w.o(.text) for __aeabi_memclr4
    eth_config.o(.text) refers to reg_config.o(.text) for Write_ETH_Parameter_To_EEPROM
    eth_config.o(.text) refers to base_config.o(.text) for Get_TEST_Station
    eth_config.o(.text) refers to menu.o(.text) for Choice_Menu
    eth_config.o(.text) refers to reg_config.o(.data) for ETH_default_Config
    eth_config.o(.text) refers to base_config.o(.bss) for Fixture
    base_config.o(.text) refers to usart.o(.text) for Uart_printf
    base_config.o(.text) refers to deqf.o(x$fpl$deqf) for __aeabi_cdcmpeq
    base_config.o(.text) refers to test_config.o(.text) for Get_Currennt_Type_CNT
    base_config.o(.text) refers to dfixu.o(x$fpl$dfixu) for __aeabi_d2uiz
    base_config.o(.text) refers to sample_notice.o(.text) for Init_Smaple_Test_Notice
    base_config.o(.text) refers to base_config.o(.bss) for Fixture
    base_config.o(.text) refers to base_config.o(.constdata) for Updown_Name
    base_config.o(.text) refers to eth_config.o(.bss) for NET_ETH
    base_config.o(.text) refers to reg_config.o(.data) for Reg
    base_config.o(.text) refers to menu.o(.data) for _Test_Mode
    base_config.o(.text) refers to y_axis.o(.text) for Up_Down_EACT_set
    base_config.o(.text) refers to x_axis.o(.text) for Take_Product_EACT_set
    base_config.o(.text) refers to dot.o(.text) for Dot_Set
    base_config.o(.text) refers to daddsub_clz.o(x$fpl$dsub) for __aeabi_dsub
    base_config.o(.text) refers to rt_memcpy_w.o(.text) for __aeabi_memcpy4
    base_config.o(.text) refers to menu.o(.text) for Choice_Menu
    base_config.o(.text) refers to dflt_clz.o(x$fpl$dfltu) for __aeabi_ui2d
    base_config.o(.text) refers to reg_config.o(.text) for Save_Single_Reg_Value
    base_config.o(.text) refers to eth_config.o(.text) for Config_ETH_IP
    base_config.o(.text) refers to lcd3033.o(.text) for cyc4or3run
    base_config.o(.text) refers to other.o(.text) for step_test_mode_get_key
    base_config.o(.text) refers to barcode.o(.text) for Scan_Set
    base_config.o(.text) refers to pf.o(.text) for pF_Capacitor_Calibration_Fun
    base_config.o(.text) refers to id.o(.text) for Read_IC_ID_Debug
    base_config.o(.text) refers to usb_move.o(.text) for USB_Move_Set
    block_check.o(.text) refers to ad7176.o(.text) for Read_AD7176_Average_Voltage_mV
    block_check.o(.text) refers to delay.o(.text) for delay_us
    block_check.o(.text) refers to ddiv.o(x$fpl$ddiv) for __aeabi_ddiv
    block_check.o(.text) refers to drleqf.o(x$fpl$drleqf) for __aeabi_cdrcmple
    block_check.o(.text) refers to rt_memcpy_w.o(.text) for __aeabi_memcpy4
    block_check.o(.text) refers to deqf.o(x$fpl$deqf) for __aeabi_cdcmpeq
    block_check.o(.text) refers to lcd3033.o(.text) for lcdreset
    block_check.o(.text) refers to analog_switch.o(.text) for Open_Two_Point
    block_check.o(.text) refers to sup_fun.o(.text) for Relay_Drive
    block_check.o(.text) refers to dac.o(.text) for DAC_Set_Vol
    block_check.o(.text) refers to dleqf.o(x$fpl$dleqf) for __aeabi_cdcmple
    block_check.o(.text) refers to other.o(.text) for startkeywait
    block_check.o(.text) refers to block_check.o(.constdata) for .constdata
    block_check.o(.text) refers to reg_config.o(.data) for Reg
    block_check.o(.text) refers to base_config.o(.bss) for Fixture
    block_check.o(.text) refers to lcd3033.o(.data) for lcdcon
    reg_config.o(.text) refers to _printf_percent.o(.ARM.Collect$$_printf_percent$$00000000) for _printf_percent
    reg_config.o(.text) refers to _printf_d.o(.ARM.Collect$$_printf_percent$$00000009) for _printf_d
    reg_config.o(.text) refers to _printf_dec.o(.text) for _printf_int_dec
    reg_config.o(.text) refers to drleqf.o(x$fpl$drleqf) for __aeabi_cdrcmple
    reg_config.o(.text) refers to dleqf.o(x$fpl$dleqf) for __aeabi_cdcmple
    reg_config.o(.text) refers to usart.o(.text) for Uart_printf
    reg_config.o(.text) refers to dfixu.o(x$fpl$dfixu) for __aeabi_d2uiz
    reg_config.o(.text) refers to 24cxx.o(.text) for AT24CXX_WriteLenByte
    reg_config.o(.text) refers to deqf.o(x$fpl$deqf) for __aeabi_cdcmpeq
    reg_config.o(.text) refers to lcd3033.o(.text) for cyc4or3run
    reg_config.o(.text) refers to dflt_clz.o(x$fpl$dfltu) for __aeabi_ui2d
    reg_config.o(.text) refers to ddiv.o(x$fpl$ddiv) for __aeabi_ddiv
    reg_config.o(.text) refers to dmul.o(x$fpl$dmul) for __aeabi_dmul
    reg_config.o(.text) refers to d2f.o(x$fpl$d2f) for __aeabi_d2f
    reg_config.o(.text) refers to f2d.o(x$fpl$f2d) for __aeabi_f2d
    reg_config.o(.text) refers to rt_memcpy_w.o(.text) for __aeabi_memcpy4
    reg_config.o(.text) refers to memcmp.o(.text) for memcmp
    reg_config.o(.text) refers to atoi.o(.text) for atoi
    reg_config.o(.text) refers to __2sprintf.o(.text) for __2sprintf
    reg_config.o(.text) refers to reg_config.o(.data) for Reg
    reg_config.o(.text) refers to reg_config.o(.constdata) for .constdata
    reg_config.o(.text) refers to wtb.o(.text) for Set_Test_Satation
    reg_config.o(.text) refers to eth_config.o(.text) for Get_ETH_ip_Addr
    reg_config.o(.text) refers to base_config.o(.text) for Get_TEST_Station
    reg_config.o(.text) refers to test_config.o(.text) for Get_Currennt_Type_CNT
    reg_config.o(.text) refers to ad5933.o(.text) for AD5933_Initalize
    reg_config.o(.text) refers to base_config.o(.bss) for Fixture
    reg_config.o(.text) refers to test_config.o(.bss) for Item_Data
    reg_config.o(.text) refers to test_config.o(.constdata) for Item
    reg_config.o(.text) refers to reg_config.o(.conststring) for .conststring
    reg_config.o(.constdata) refers to reg_config.o(.conststring) for .conststring
    reg_config.o(.data) refers to reg_config.o(.conststring) for .conststring
    sample_notice.o(.text) refers to stm32f10x_rcc.o(.text) for RCC_APB1PeriphClockCmd
    sample_notice.o(.text) refers to stm32f10x_tim.o(.text) for TIM_DeInit
    sample_notice.o(.text) refers to misc.o(.text) for NVIC_Init
    sample_notice.o(.text) refers to lcd3033.o(.text) for lcdreset
    sample_notice.o(.text) refers to dfixu.o(x$fpl$dfixu) for __aeabi_d2uiz
    sample_notice.o(.text) refers to fflt_clz.o(x$fpl$ffltu) for __aeabi_ui2f
    sample_notice.o(.text) refers to d2f.o(x$fpl$d2f) for __aeabi_d2f
    sample_notice.o(.text) refers to fmul.o(x$fpl$fmul) for __aeabi_fmul
    sample_notice.o(.text) refers to faddsub_clz.o(x$fpl$fsub) for __aeabi_fsub
    sample_notice.o(.text) refers to fleqf.o(x$fpl$fleqf) for __aeabi_cfcmple
    sample_notice.o(.text) refers to other.o(.text) for GetKey_Status
    sample_notice.o(.text) refers to ffixu.o(x$fpl$ffixu) for __aeabi_f2uiz
    sample_notice.o(.text) refers to rt_memcpy_w.o(.text) for __aeabi_memcpy4
    sample_notice.o(.text) refers to menu.o(.text) for Choice_Menu
    sample_notice.o(.text) refers to dflt_clz.o(x$fpl$dfltu) for __aeabi_ui2d
    sample_notice.o(.text) refers to reg_config.o(.text) for Save_Single_Reg_Value
    sample_notice.o(.text) refers to deqf.o(x$fpl$deqf) for __aeabi_cdcmpeq
    sample_notice.o(.text) refers to dmul.o(x$fpl$dmul) for __aeabi_dmul
    sample_notice.o(.text) refers to daddsub_clz.o(x$fpl$dsub) for __aeabi_dsub
    sample_notice.o(.text) refers to dfix.o(x$fpl$dfix) for __aeabi_d2iz
    sample_notice.o(.text) refers to delay.o(.text) for delay_ms
    sample_notice.o(.text) refers to base_config.o(.bss) for Fixture
    sample_notice.o(.text) refers to reg_config.o(.data) for Reg
    sample_notice.o(.text) refers to sample_notice.o(.constdata) for .constdata
    sample_notice.o(.text) refers to sample_notice.o(.data) for Sammple_List
    sample_notice.o(.text) refers to lcd3033.o(.data) for lcdcon
    sample_notice.o(.text) refers to drleqf.o(x$fpl$drleqf) for __aeabi_cdrcmple
    sample_notice.o(.data) refers to sample_notice.o(.conststring) for .conststring
    sample_notice.o(.data) refers to sample_notice.o(.text) for Sample_Notice_Enable_Set
    dot.o(.text) refers to rt_memcpy_w.o(.text) for __aeabi_memcpy4
    dot.o(.text) refers to dfixu.o(x$fpl$dfixu) for __aeabi_d2uiz
    dot.o(.text) refers to menu.o(.text) for Choice_Menu
    dot.o(.text) refers to dflt_clz.o(x$fpl$dfltu) for __aeabi_ui2d
    dot.o(.text) refers to reg_config.o(.text) for Save_Single_Reg_Value
    dot.o(.text) refers to lcd3033.o(.text) for lcdreset
    dot.o(.text) refers to other.o(.text) for step_test_mode_get_key
    dot.o(.text) refers to deqf.o(x$fpl$deqf) for __aeabi_cdcmpeq
    dot.o(.text) refers to drleqf.o(x$fpl$drleqf) for __aeabi_cdrcmple
    dot.o(.text) refers to delay.o(.text) for delay_ms
    dot.o(.text) refers to motor.o(.text) for Set_Motor_Debug_SETUP_Flag
    dot.o(.text) refers to sup_fun.o(.text) for Valve_Drive
    dot.o(.text) refers to dleqf.o(x$fpl$dleqf) for __aeabi_cdcmple
    dot.o(.text) refers to dot.o(.constdata) for .constdata
    dot.o(.text) refers to reg_config.o(.data) for Reg
    dot.o(.text) refers to base_config.o(.bss) for Fixture
    dot.o(.text) refers to lcd3033.o(.data) for lcdcon
    dot.o(.text) refers to dot.o(.data) for dot_List
    dot.o(.text) refers to daddsub_clz.o(x$fpl$dadd) for __aeabi_dadd
    dot.o(.data) refers to dot.o(.conststring) for .conststring
    dot.o(.data) refers to dot.o(.text) for Dot_Enable_Set
    dot.o(.data) refers to motor.o(.text) for Motor_Dot_Speed_Set
    motor.o(.text) refers to stm32f10x_gpio.o(.text) for GPIO_Init
    motor.o(.text) refers to delay.o(.text) for delay_ms
    motor.o(.text) refers to stm32f10x_rcc.o(.text) for RCC_APB1PeriphClockCmd
    motor.o(.text) refers to stm32f10x_tim.o(.text) for TIM_DeInit
    motor.o(.text) refers to misc.o(.text) for NVIC_Init
    motor.o(.text) refers to dleqf.o(x$fpl$dleqf) for __aeabi_cdcmple
    motor.o(.text) refers to f2d.o(x$fpl$f2d) for __aeabi_f2d
    motor.o(.text) refers to lcd3033.o(.text) for cyc4or3run
    motor.o(.text) refers to drleqf.o(x$fpl$drleqf) for __aeabi_cdrcmple
    motor.o(.text) refers to daddsub_clz.o(x$fpl$dsub) for __aeabi_dsub
    motor.o(.text) refers to daddsub_clz.o(x$fpl$dadd) for __aeabi_dadd
    motor.o(.text) refers to dflt_clz.o(x$fpl$dfltu) for __aeabi_ui2d
    motor.o(.text) refers to dmul.o(x$fpl$dmul) for __aeabi_dmul
    motor.o(.text) refers to ddiv.o(x$fpl$ddiv) for __aeabi_ddiv
    motor.o(.text) refers to dfixu.o(x$fpl$dfixu) for __aeabi_d2uiz
    motor.o(.text) refers to motor.o(.bss) for Motor
    motor.o(.text) refers to motor.o(.data) for Motor_Pulse_couter
    motor.o(.text) refers to stm32f10x_exti.o(.text) for EXTI_Init
    motor.o(.text) refers to sup_fun.o(.text) for beep
    motor.o(.text) refers to ad7176.o(.text) for STM32_Software_Reset_Hander
    motor.o(.text) refers to lcd3033.o(.data) for lcdcon
    motor.o(.text) refers to deqf.o(x$fpl$deqf) for __aeabi_cdcmpeq
    motor.o(.text) refers to fdiv.o(x$fpl$fdiv) for __aeabi_fdiv
    motor.o(.text) refers to rt_memcpy_w.o(.text) for __aeabi_memcpy4
    motor.o(.text) refers to menu.o(.text) for Choice_Menu
    motor.o(.text) refers to reg_config.o(.text) for Save_Single_Reg_Value
    motor.o(.text) refers to reg_config.o(.data) for Reg
    motor.o(.text) refers to motor.o(.constdata) for .constdata
    motor.o(.text) refers to base_config.o(.bss) for Fixture
    motor.o(.text) refers to other.o(.text) for Get_start_key_val
    usb_move.o(.text) refers to deqf.o(x$fpl$deqf) for __aeabi_cdcmpeq
    usb_move.o(.text) refers to dfixu.o(x$fpl$dfixu) for __aeabi_d2uiz
    usb_move.o(.text) refers to dflt_clz.o(x$fpl$dfltu) for __aeabi_ui2d
    usb_move.o(.text) refers to fdiv.o(x$fpl$fdiv) for __aeabi_fdiv
    usb_move.o(.text) refers to f2d.o(x$fpl$f2d) for __aeabi_f2d
    usb_move.o(.text) refers to dmul.o(x$fpl$dmul) for __aeabi_dmul
    usb_move.o(.text) refers to motor.o(.text) for Motor_Setup
    usb_move.o(.text) refers to sup_fun.o(.text) for Valve_Drive
    usb_move.o(.text) refers to delay.o(.text) for delay_ms
    usb_move.o(.text) refers to rt_memcpy_w.o(.text) for __aeabi_memcpy4
    usb_move.o(.text) refers to menu.o(.text) for Choice_Menu
    usb_move.o(.text) refers to reg_config.o(.text) for Save_Single_Reg_Value
    usb_move.o(.text) refers to reg_config.o(.data) for Reg
    usb_move.o(.text) refers to motor.o(.bss) for Motor
    usb_move.o(.text) refers to base_config.o(.bss) for Fixture
    usb_move.o(.text) refers to usb_move.o(.constdata) for .constdata
    usb_move.o(.text) refers to motor.o(.data) for Motor_Debug_Flag
    usb_move.o(.text) refers to usb_move.o(.data) for usb_move_List
    usb_move.o(.data) refers to usb_move.o(.conststring) for .conststring
    usb_move.o(.data) refers to usb_move.o(.text) for USB_Motor_Enable_Set
    modbus.o(.text) refers to crc.o(.text) for Modbus_CRC16
    modbus.o(.text) refers to usart.o(.text) for _Uart_printf
    modbus.o(.text) refers to rt_memclr_w.o(.text) for __aeabi_memclr4
    modbus.o(.text) refers to modbus.o(.data) for Lec_Ptr
    modbus.o(.text) refers to dflt_clz.o(x$fpl$dflt) for __aeabi_i2d
    modbus.o(.text) refers to ddiv.o(x$fpl$ddiv) for __aeabi_ddiv
    modbus.o(.text) refers to delay.o(.text) for delay_ms
    modbus.o(.text) refers to dleqf.o(x$fpl$dleqf) for __aeabi_cdcmple
    modbus.o(.text) refers to dmul.o(x$fpl$dmul) for __aeabi_dmul
    modbus.o(.text) refers to dfixu.o(x$fpl$dfixu) for __aeabi_d2uiz
    modbus.o(.text) refers to lcd3033.o(.text) for cyc4or3run
    modbus.o(.text) refers to dfix.o(x$fpl$dfix) for __aeabi_d2iz
    modbus.o(.text) refers to drleqf.o(x$fpl$drleqf) for __aeabi_cdrcmple
    modbus.o(.text) refers to daddsub_clz.o(x$fpl$dadd) for __aeabi_dadd
    modbus.o(.text) refers to rt_memcpy_w.o(.text) for __aeabi_memcpy4
    modbus.o(.text) refers to modbus.o(.constdata) for .constdata
    modbus.o(.text) refers to y_axis.o(.data) for Y_Axis
    modbus.o(.text) refers to daddsub_clz.o(x$fpl$dsub) for __aeabi_dsub
    modbus.o(.text) refers to x_axis.o(.data) for X_Axis
    crc.o(.text) refers to crc.o(.constdata) for auchCRCHi
    x_axis.o(.text) refers to deqf.o(x$fpl$deqf) for __aeabi_cdcmpeq
    x_axis.o(.text) refers to sup_fun.o(.text) for Read_Sensor_Status
    x_axis.o(.text) refers to dfixu.o(x$fpl$dfixu) for __aeabi_d2uiz
    x_axis.o(.text) refers to rt_memcpy_w.o(.text) for __aeabi_memcpy4
    x_axis.o(.text) refers to modbus.o(.text) for Running_Position
    x_axis.o(.text) refers to hold_data.o(.text) for Get_Take_OFF_Enable_bit
    x_axis.o(.text) refers to delay.o(.text) for delay_ms
    x_axis.o(.text) refers to lcd3033.o(.text) for lcdreset
    x_axis.o(.text) refers to other.o(.text) for step_test_mode_get_key
    x_axis.o(.text) refers to menu.o(.text) for Menu_List_Fun
    x_axis.o(.text) refers to reg_config.o(.text) for RevertStartupScreen
    x_axis.o(.text) refers to usart3.o(.text) for uart3_init
    x_axis.o(.text) refers to reg_config.o(.data) for ACT_Parameter
    x_axis.o(.text) refers to x_axis.o(.data) for X_Axis
    x_axis.o(.text) refers to base_config.o(.bss) for Fixture
    x_axis.o(.text) refers to lcd3033.o(.data) for lcdcon
    x_axis.o(.text) refers to dflt_clz.o(x$fpl$dfltu) for __aeabi_ui2d
    x_axis.o(.text) refers to drleqf.o(x$fpl$drleqf) for __aeabi_cdrcmple
    x_axis.o(.text) refers to dleqf.o(x$fpl$dleqf) for __aeabi_cdcmple
    x_axis.o(.text) refers to x_axis.o(.constdata) for .constdata
    x_axis.o(.data) refers to x_axis.o(.conststring) for .conststring
    x_axis.o(.data) refers to x_axis.o(.text) for Take_Product_EACT_Enable_Set
    y_axis.o(.text) refers to lcd3033.o(.text) for lcdreset
    y_axis.o(.text) refers to other.o(.text) for step_test_mode_get_key
    y_axis.o(.text) refers to menu.o(.text) for Menu_List_Fun
    y_axis.o(.text) refers to deqf.o(x$fpl$deqf) for __aeabi_cdcmpeq
    y_axis.o(.text) refers to dfixu.o(x$fpl$dfixu) for __aeabi_d2uiz
    y_axis.o(.text) refers to rt_memcpy_w.o(.text) for __aeabi_memcpy4
    y_axis.o(.text) refers to modbus.o(.text) for Running_Position
    y_axis.o(.text) refers to reg_config.o(.text) for RevertStartupScreen
    y_axis.o(.text) refers to delay.o(.text) for delay_ms
    y_axis.o(.text) refers to usart2.o(.text) for uart2_init
    y_axis.o(.text) refers to dflt_clz.o(x$fpl$dfltu) for __aeabi_ui2d
    y_axis.o(.text) refers to hold_data.o(.text) for Save_Hold_Reg_data
    y_axis.o(.text) refers to base_config.o(.bss) for Fixture
    y_axis.o(.text) refers to y_axis.o(.data) for Eact_UpDown_List
    y_axis.o(.text) refers to reg_config.o(.data) for ACT_Parameter
    y_axis.o(.text) refers to lcd3033.o(.data) for lcdcon
    y_axis.o(.text) refers to y_axis.o(.constdata) for .constdata
    y_axis.o(.text) refers to dleqf.o(x$fpl$dleqf) for __aeabi_cdcmple
    y_axis.o(.text) refers to drleqf.o(x$fpl$drleqf) for __aeabi_cdrcmple
    y_axis.o(.text) refers to daddsub_clz.o(x$fpl$dsub) for __aeabi_dsub
    y_axis.o(.data) refers to y_axis.o(.conststring) for .conststring
    y_axis.o(.data) refers to y_axis.o(.text) for Up_Down_EACT_Enable_Set
    os.o(.text) refers to sup_fun.o(.text) for Relay_Drive
    os.o(.text) refers to delay.o(.text) for delay_ms
    os.o(.text) refers to dfixu.o(x$fpl$dfixu) for __aeabi_d2uiz
    os.o(.text) refers to dac.o(.text) for DAC_Set_Vol
    os.o(.text) refers to ad7176.o(.text) for AD_Sample_Rate_Set
    os.o(.text) refers to drleqf.o(x$fpl$drleqf) for __aeabi_cdrcmple
    os.o(.text) refers to dleqf.o(x$fpl$dleqf) for __aeabi_cdcmple
    os.o(.text) refers to deqf.o(x$fpl$deqf) for __aeabi_cdcmpeq
    os.o(.text) refers to ddiv.o(x$fpl$ddiv) for __aeabi_ddiv
    os.o(.text) refers to dmul.o(x$fpl$dmul) for __aeabi_dmul
    os.o(.text) refers to lcd3033.o(.text) for lcdreset
    os.o(.text) refers to analog_switch.o(.text) for Close_All_Point
    os.o(.text) refers to other.o(.text) for startkeywait
    os.o(.text) refers to reg_config.o(.text) for RevertStartupScreen
    os.o(.text) refers to base_config.o(.bss) for Fixture
    os.o(.text) refers to os.o(.data) for Pin_Name
    os.o(.text) refers to lcd3033.o(.data) for lcdcon
    os.o(.data) refers to os.o(.conststring) for .conststring
    mr.o(.text) refers to ad7176.o(.text) for Read_AD7176_Average_Voltage_mV
    mr.o(.text) refers to drleqf.o(x$fpl$drleqf) for __aeabi_cdrcmple
    mr.o(.text) refers to dleqf.o(x$fpl$dleqf) for __aeabi_cdcmple
    mr.o(.text) refers to delay.o(.text) for delay_us
    mr.o(.text) refers to deqf.o(x$fpl$deqf) for __aeabi_cdcmpeq
    mr.o(.text) refers to ddiv.o(x$fpl$ddiv) for __aeabi_ddiv
    mr.o(.text) refers to dmul.o(x$fpl$dmul) for __aeabi_dmul
    mr.o(.text) refers to strstr.o(.text) for strstr
    mr.o(.text) refers to lcd3033.o(.text) for cyc4or3run
    mr.o(.text) refers to aeabi_memset.o(.text) for __aeabi_memset
    mr.o(.text) refers to analog_switch.o(.text) for Close_All_Point
    mr.o(.text) refers to os.o(.text) for Enable_RES_Test_Analog_Switch
    mr.o(.text) refers to strlen.o(.text) for strlen
    mr.o(.text) refers to f2d.o(x$fpl$f2d) for __aeabi_f2d
    mr.o(.text) refers to d2f.o(x$fpl$d2f) for __aeabi_d2f
    mr.o(.text) refers to other.o(.text) for Average_Fun
    mr.o(.text) refers to test_config.o(.constdata) for Item
    mr.o(.text) refers to test_config.o(.bss) for TestConfig
    mr.o(.text) refers to base_config.o(.bss) for Fixture
    mr.o(.text) refers to lcd3033.o(.data) for lcdcon
    mr.o(.text) refers to frleqf.o(x$fpl$frleqf) for __aeabi_cfrcmple
    mr.o(.text) refers to fleqf.o(x$fpl$fleqf) for __aeabi_cfcmple
    kohm.o(.text) refers to ad7176.o(.text) for Read_AD7176_Average_Voltage_mV
    kohm.o(.text) refers to delay.o(.text) for delay_us
    kohm.o(.text) refers to ddiv.o(x$fpl$ddiv) for __aeabi_ddiv
    kohm.o(.text) refers to strstr.o(.text) for strstr
    kohm.o(.text) refers to drleqf.o(x$fpl$drleqf) for __aeabi_cdrcmple
    kohm.o(.text) refers to analog_switch.o(.text) for Open_Two_Point
    kohm.o(.text) refers to f2d.o(x$fpl$f2d) for __aeabi_f2d
    kohm.o(.text) refers to dleqf.o(x$fpl$dleqf) for __aeabi_cdcmple
    kohm.o(.text) refers to d2f.o(x$fpl$d2f) for __aeabi_d2f
    kohm.o(.text) refers to other.o(.text) for Average_Fun
    kohm.o(.text) refers to lcd3033.o(.text) for cyc4or3run
    kohm.o(.text) refers to frleqf.o(x$fpl$frleqf) for __aeabi_cfrcmple
    kohm.o(.text) refers to fleqf.o(x$fpl$fleqf) for __aeabi_cfcmple
    kohm.o(.text) refers to test_config.o(.constdata) for Item
    kohm.o(.text) refers to base_config.o(.bss) for Fixture
    kohm.o(.text) refers to test_config.o(.bss) for Item_Data
    kohm.o(.text) refers to lcd3033.o(.data) for lcdcon
    kohm.o(.text) refers to sup_fun.o(.text) for Relay_Drive
    kohm.o(.text) refers to deqf.o(x$fpl$deqf) for __aeabi_cdcmpeq
    kohm.o(.text) refers to dfixu.o(x$fpl$dfixu) for __aeabi_d2uiz
    kohm.o(.text) refers to dac.o(.text) for DAC_Set_Vol
    kohm.o(.text) refers to rt_memcpy_w.o(.text) for __aeabi_memcpy4
    kohm.o(.text) refers to kohm.o(.constdata) for .constdata
    open.o(.text) refers to _printf_percent.o(.ARM.Collect$$_printf_percent$$00000000) for _printf_percent
    open.o(.text) refers to _printf_f.o(.ARM.Collect$$_printf_percent$$00000003) for _printf_f
    open.o(.text) refers to _printf_s.o(.ARM.Collect$$_printf_percent$$00000014) for _printf_s
    open.o(.text) refers to printf1.o(x$fpl$printf1) for _printf_fp_dec
    open.o(.text) refers to _printf_str.o(.text) for _printf_str
    open.o(.text) refers to sup_fun.o(.text) for Relay_Drive
    open.o(.text) refers to dfixu.o(x$fpl$dfixu) for __aeabi_d2uiz
    open.o(.text) refers to dac.o(.text) for DAC_Set_Vol
    open.o(.text) refers to ad7176.o(.text) for AD_Sample_Rate_Set
    open.o(.text) refers to delay.o(.text) for delay_ms
    open.o(.text) refers to rt_memclr_w.o(.text) for __aeabi_memclr4
    open.o(.text) refers to os.o(.text) for Res_2wire_Test_Mohm
    open.o(.text) refers to drleqf.o(x$fpl$drleqf) for __aeabi_cdrcmple
    open.o(.text) refers to other.o(.text) for Average_Fun
    open.o(.text) refers to lcd3033.o(.text) for cyc4or3run
    open.o(.text) refers to dmul.o(x$fpl$dmul) for __aeabi_dmul
    open.o(.text) refers to analog_switch.o(.text) for Close_All_Point
    open.o(.text) refers to dleqf.o(x$fpl$dleqf) for __aeabi_cdcmple
    open.o(.text) refers to os.o(.data) for Pin_Name
    open.o(.text) refers to lcd3033.o(.data) for lcdcon
    open.o(.text) refers to open.o(.constdata) for OpenGroup
    open.o(.text) refers to open.o(.bss) for Open_Data
    open.o(.text) refers to __2sprintf.o(.text) for __2sprintf
    open.o(.text) refers to strcpy.o(.text) for strcpy
    open.o(.text) refers to base_config.o(.bss) for Fixture
    open.o(.text) refers to f2d.o(x$fpl$f2d) for __aeabi_f2d
    open.o(.text) refers to d2f.o(x$fpl$d2f) for __aeabi_d2f
    open.o(.text) refers to fleqf.o(x$fpl$fleqf) for __aeabi_cfcmple
    open.o(.text) refers to frleqf.o(x$fpl$frleqf) for __aeabi_cfrcmple
    open.o(.text) refers to fmul.o(x$fpl$fmul) for __aeabi_fmul
    open.o(.text) refers to test_config.o(.constdata) for Item
    open.o(.text) refers to test_config.o(.bss) for Item_Data
    short.o(.text) refers to _printf_percent.o(.ARM.Collect$$_printf_percent$$00000000) for _printf_percent
    short.o(.text) refers to _printf_d.o(.ARM.Collect$$_printf_percent$$00000009) for _printf_d
    short.o(.text) refers to _printf_dec.o(.text) for _printf_int_dec
    short.o(.text) refers to lcd3033.o(.text) for lcdreset
    short.o(.text) refers to rt_memclr.o(.text) for __aeabi_memclr
    short.o(.text) refers to other.o(.text) for step_test_mode_get_key
    short.o(.text) refers to analog_switch.o(.text) for Open_Two_Point
    short.o(.text) refers to delay.o(.text) for delay_ms
    short.o(.text) refers to os.o(.text) for Res_2wire_Test
    short.o(.text) refers to drleqf.o(x$fpl$drleqf) for __aeabi_cdrcmple
    short.o(.text) refers to dleqf.o(x$fpl$dleqf) for __aeabi_cdcmple
    short.o(.text) refers to ddiv.o(x$fpl$ddiv) for __aeabi_ddiv
    short.o(.text) refers to ad7176.o(.text) for AD_Sample_Rate_Set
    short.o(.text) refers to short.o(.bss) for ErrorMsg
    short.o(.text) refers to short.o(.constdata) for ShortGroup
    short.o(.text) refers to base_config.o(.bss) for Fixture
    short.o(.text) refers to lcd3033.o(.data) for lcdcon
    short.o(.text) refers to os.o(.data) for Pin_Name
    short.o(.text) refers to f2d.o(x$fpl$f2d) for __aeabi_f2d
    short.o(.text) refers to d2f.o(x$fpl$d2f) for __aeabi_d2f
    short.o(.text) refers to test_config.o(.constdata) for Item
    short.o(.text) refers to test_config.o(.bss) for Item_Data
    short.o(.text) refers to frleqf.o(x$fpl$frleqf) for __aeabi_cfrcmple
    short.o(.text) refers to fleqf.o(x$fpl$fleqf) for __aeabi_cfcmple
    short.o(.text) refers to __2sprintf.o(.text) for __2sprintf
    short.o(.text) refers to strlen.o(.text) for strlen
    diode.o(.text) refers to ad7176.o(.text) for Read_AD7176_Average_Voltage_mV
    diode.o(.text) refers to strstr.o(.text) for strstr
    diode.o(.text) refers to ddiv.o(x$fpl$ddiv) for __aeabi_ddiv
    diode.o(.text) refers to analog_switch.o(.text) for Open_Two_Point
    diode.o(.text) refers to delay.o(.text) for delay_ms
    diode.o(.text) refers to f2d.o(x$fpl$f2d) for __aeabi_f2d
    diode.o(.text) refers to dleqf.o(x$fpl$dleqf) for __aeabi_cdcmple
    diode.o(.text) refers to drleqf.o(x$fpl$drleqf) for __aeabi_cdrcmple
    diode.o(.text) refers to d2f.o(x$fpl$d2f) for __aeabi_d2f
    diode.o(.text) refers to other.o(.text) for Average_Fun
    diode.o(.text) refers to lcd3033.o(.text) for cyc4or3run
    diode.o(.text) refers to frleqf.o(x$fpl$frleqf) for __aeabi_cfrcmple
    diode.o(.text) refers to fleqf.o(x$fpl$fleqf) for __aeabi_cfcmple
    diode.o(.text) refers to sup_fun.o(.text) for Relay_Drive
    diode.o(.text) refers to deqf.o(x$fpl$deqf) for __aeabi_cdcmpeq
    diode.o(.text) refers to test_config.o(.constdata) for Item
    diode.o(.text) refers to base_config.o(.bss) for Fixture
    diode.o(.text) refers to test_config.o(.bss) for Item_Data
    diode.o(.text) refers to lcd3033.o(.data) for lcdcon
    diode.o(.text) refers to dac.o(.text) for DAC_Set_Vol
    diode.o(.text) refers to rt_memcpy_w.o(.text) for __aeabi_memcpy4
    diode.o(.text) refers to dfixu.o(x$fpl$dfixu) for __aeabi_d2uiz
    diode.o(.text) refers to dmul.o(x$fpl$dmul) for __aeabi_dmul
    diode.o(.text) refers to diode.o(.constdata) for .constdata
    uf.o(.text) refers to lcd3033.o(.text) for lcdreset
    uf.o(.text) refers to delay.o(.text) for delay_us
    uf.o(.text) refers to ad7176.o(.text) for Read_AD7176_Average_Voltage_mV
    uf.o(.text) refers to other.o(.text) for Average_Fun
    uf.o(.text) refers to dmul.o(x$fpl$dmul) for __aeabi_dmul
    uf.o(.text) refers to drleqf.o(x$fpl$drleqf) for __aeabi_cdrcmple
    uf.o(.text) refers to dleqf.o(x$fpl$dleqf) for __aeabi_cdcmple
    uf.o(.text) refers to ddiv.o(x$fpl$ddiv) for __aeabi_ddiv
    uf.o(.text) refers to deqf.o(x$fpl$deqf) for __aeabi_cdcmpeq
    uf.o(.text) refers to pow.o(i.pow) for pow
    uf.o(.text) refers to daddsub_clz.o(x$fpl$dadd) for __aeabi_dadd
    uf.o(.text) refers to daddsub_clz.o(x$fpl$dsub) for __aeabi_dsub
    uf.o(.text) refers to sqrt.o(i.sqrt) for sqrt
    uf.o(.text) refers to strstr.o(.text) for strstr
    uf.o(.text) refers to f2d.o(x$fpl$f2d) for __aeabi_f2d
    uf.o(.text) refers to analog_switch.o(.text) for Open_Two_Point
    uf.o(.text) refers to uf.o(.data) for uF_Cap_Ratio
    uf.o(.text) refers to test_config.o(.constdata) for Item
    uf.o(.text) refers to base_config.o(.bss) for Fixture
    uf.o(.text) refers to d2f.o(x$fpl$d2f) for __aeabi_d2f
    uf.o(.text) refers to frleqf.o(x$fpl$frleqf) for __aeabi_cfrcmple
    uf.o(.text) refers to fleqf.o(x$fpl$fleqf) for __aeabi_cfcmple
    uf.o(.text) refers to sup_fun.o(.text) for Relay_Drive
    uf.o(.text) refers to test_config.o(.bss) for Item_Data
    uf.o(.text) refers to lcd3033.o(.data) for lcdcon
    uf.o(.text) refers to 24cxx.o(.text) for read_double_data
    uf.o(.text) refers to reg_config.o(.text) for RevertStartupScreen
    pf.o(.text) refers to f2d.o(x$fpl$f2d) for __aeabi_f2d
    pf.o(.text) refers to ad5933.o(.text) for LCR_Test
    pf.o(.text) refers to daddsub_clz.o(x$fpl$dsub) for __aeabi_dsub
    pf.o(.text) refers to dleqf.o(x$fpl$dleqf) for __aeabi_cdcmple
    pf.o(.text) refers to sup_fun.o(.text) for Relay_Drive
    pf.o(.text) refers to delay.o(.text) for delay_ms
    pf.o(.text) refers to drleqf.o(x$fpl$drleqf) for __aeabi_cdrcmple
    pf.o(.text) refers to d2f.o(x$fpl$d2f) for __aeabi_d2f
    pf.o(.text) refers to other.o(.text) for Average_Fun
    pf.o(.text) refers to lcd3033.o(.text) for cyc4or3run
    pf.o(.text) refers to frleqf.o(x$fpl$frleqf) for __aeabi_cfrcmple
    pf.o(.text) refers to fleqf.o(x$fpl$fleqf) for __aeabi_cfcmple
    pf.o(.text) refers to analog_switch.o(.text) for Close_All_Point
    pf.o(.text) refers to test_config.o(.bss) for Item_Data
    pf.o(.text) refers to test_config.o(.constdata) for Item
    pf.o(.text) refers to base_config.o(.bss) for Fixture
    pf.o(.text) refers to lcd3033.o(.data) for lcdcon
    pf.o(.text) refers to faddsub_clz.o(x$fpl$fsub) for __aeabi_fsub
    pf.o(.text) refers to test_config.o(.text) for Get_Currennt_Type_CNT
    pf.o(.text) refers to reg_config.o(.text) for Write_pF_Capacitor_offset
    os_study.o(.text) refers to _printf_percent.o(.ARM.Collect$$_printf_percent$$00000000) for _printf_percent
    os_study.o(.text) refers to _printf_d.o(.ARM.Collect$$_printf_percent$$00000009) for _printf_d
    os_study.o(.text) refers to _printf_dec.o(.text) for _printf_int_dec
    os_study.o(.text) refers to ad7176.o(.text) for Read_AD7176_Average_Voltage_mV
    os_study.o(.text) refers to drleqf.o(x$fpl$drleqf) for __aeabi_cdrcmple
    os_study.o(.text) refers to dleqf.o(x$fpl$dleqf) for __aeabi_cdcmple
    os_study.o(.text) refers to delay.o(.text) for delay_us
    os_study.o(.text) refers to ddiv.o(x$fpl$ddiv) for __aeabi_ddiv
    os_study.o(.text) refers to lcd3033.o(.text) for lcdreset
    os_study.o(.text) refers to rt_memclr_w.o(.text) for __aeabi_memclr4
    os_study.o(.text) refers to __2sprintf.o(.text) for __2sprintf
    os_study.o(.text) refers to strlen.o(.text) for strlen
    os_study.o(.text) refers to other.o(.text) for step_test_mode_get_key
    os_study.o(.text) refers to os.o(.text) for Enable_RES_Test_Analog_Switch
    os_study.o(.text) refers to usart.o(.text) for Uart_printf
    os_study.o(.text) refers to analog_switch.o(.text) for Open_Two_Point
    os_study.o(.text) refers to reg_config.o(.text) for RevertStartupScreen
    os_study.o(.text) refers to base_config.o(.bss) for Fixture
    hall.o(.text) refers to sup_fun.o(.text) for Relay_Drive
    hall.o(.text) refers to deqf.o(x$fpl$deqf) for __aeabi_cdcmpeq
    hall.o(.text) refers to ad7176.o(.text) for AD_Sample_Rate_Set
    hall.o(.text) refers to dac.o(.text) for DAC_Set_Vol
    hall.o(.text) refers to delay.o(.text) for delay_ms
    hall.o(.text) refers to strstr.o(.text) for strstr
    hall.o(.text) refers to ddiv.o(x$fpl$ddiv) for __aeabi_ddiv
    hall.o(.text) refers to ffixu.o(x$fpl$ffixu) for __aeabi_f2uiz
    hall.o(.text) refers to analog_switch.o(.text) for Open_Two_Point
    hall.o(.text) refers to f2d.o(x$fpl$f2d) for __aeabi_f2d
    hall.o(.text) refers to dleqf.o(x$fpl$dleqf) for __aeabi_cdcmple
    hall.o(.text) refers to drleqf.o(x$fpl$drleqf) for __aeabi_cdrcmple
    hall.o(.text) refers to d2f.o(x$fpl$d2f) for __aeabi_d2f
    hall.o(.text) refers to other.o(.text) for Average_Fun
    hall.o(.text) refers to lcd3033.o(.text) for cyc4or3run
    hall.o(.text) refers to test_config.o(.constdata) for Item
    hall.o(.text) refers to base_config.o(.bss) for Fixture
    hall.o(.text) refers to test_config.o(.bss) for Item_Data
    hall.o(.text) refers to lcd3033.o(.data) for lcdcon
    hall.o(.text) refers to frleqf.o(x$fpl$frleqf) for __aeabi_cfrcmple
    hall.o(.text) refers to fleqf.o(x$fpl$fleqf) for __aeabi_cfcmple
    hall.o(.text) refers to rt_memcpy_w.o(.text) for __aeabi_memcpy4
    hall.o(.text) refers to hall.o(.constdata) for .constdata
    ldo.o(.text) refers to sup_fun.o(.text) for Valve_Drive
    ldo.o(.text) refers to deqf.o(x$fpl$deqf) for __aeabi_cdcmpeq
    ldo.o(.text) refers to ad7176.o(.text) for AD_Sample_Rate_Set
    ldo.o(.text) refers to delay.o(.text) for delay_ms
    ldo.o(.text) refers to dac.o(.text) for DAC_Set_Vol
    ldo.o(.text) refers to strstr.o(.text) for strstr
    ldo.o(.text) refers to ddiv.o(x$fpl$ddiv) for __aeabi_ddiv
    ldo.o(.text) refers to ffixu.o(x$fpl$ffixu) for __aeabi_f2uiz
    ldo.o(.text) refers to analog_switch.o(.text) for Open_Two_Point
    ldo.o(.text) refers to f2d.o(x$fpl$f2d) for __aeabi_f2d
    ldo.o(.text) refers to dleqf.o(x$fpl$dleqf) for __aeabi_cdcmple
    ldo.o(.text) refers to drleqf.o(x$fpl$drleqf) for __aeabi_cdrcmple
    ldo.o(.text) refers to d2f.o(x$fpl$d2f) for __aeabi_d2f
    ldo.o(.text) refers to other.o(.text) for Average_Fun
    ldo.o(.text) refers to lcd3033.o(.text) for cyc4or3run
    ldo.o(.text) refers to frleqf.o(x$fpl$frleqf) for __aeabi_cfrcmple
    ldo.o(.text) refers to test_config.o(.constdata) for Item
    ldo.o(.text) refers to base_config.o(.bss) for Fixture
    ldo.o(.text) refers to test_config.o(.bss) for Item_Data
    ldo.o(.text) refers to lcd3033.o(.data) for lcdcon
    ldo.o(.text) refers to fleqf.o(x$fpl$fleqf) for __aeabi_cfcmple
    ldo.o(.text) refers to rt_memcpy_w.o(.text) for __aeabi_memcpy4
    ldo.o(.text) refers to ldo.o(.constdata) for .constdata
    leakage_i.o(.text) refers to ad7176.o(.text) for Read_AD7176_Average_Voltage_mV
    leakage_i.o(.text) refers to other.o(.text) for Average_Fun
    leakage_i.o(.text) refers to ddiv.o(x$fpl$ddiv) for __aeabi_ddiv
    leakage_i.o(.text) refers to strstr.o(.text) for strstr
    leakage_i.o(.text) refers to dmul.o(x$fpl$dmul) for __aeabi_dmul
    leakage_i.o(.text) refers to sup_fun.o(.text) for Relay_Drive
    leakage_i.o(.text) refers to deqf.o(x$fpl$deqf) for __aeabi_cdcmpeq
    leakage_i.o(.text) refers to delay.o(.text) for delay_ms
    leakage_i.o(.text) refers to dac.o(.text) for DAC_Set_Vol
    leakage_i.o(.text) refers to ffixu.o(x$fpl$ffixu) for __aeabi_f2uiz
    leakage_i.o(.text) refers to analog_switch.o(.text) for Open_Two_Point
    leakage_i.o(.text) refers to f2d.o(x$fpl$f2d) for __aeabi_f2d
    leakage_i.o(.text) refers to dleqf.o(x$fpl$dleqf) for __aeabi_cdcmple
    leakage_i.o(.text) refers to drleqf.o(x$fpl$drleqf) for __aeabi_cdrcmple
    leakage_i.o(.text) refers to d2f.o(x$fpl$d2f) for __aeabi_d2f
    leakage_i.o(.text) refers to lcd3033.o(.text) for cyc4or3run
    leakage_i.o(.text) refers to frleqf.o(x$fpl$frleqf) for __aeabi_cfrcmple
    leakage_i.o(.text) refers to fleqf.o(x$fpl$fleqf) for __aeabi_cfcmple
    leakage_i.o(.text) refers to rt_memcpy_w.o(.text) for __aeabi_memcpy4
    leakage_i.o(.text) refers to test_config.o(.constdata) for Item
    leakage_i.o(.text) refers to base_config.o(.bss) for Fixture
    leakage_i.o(.text) refers to test_config.o(.bss) for Item_Data
    leakage_i.o(.text) refers to lcd3033.o(.data) for lcdcon
    leakage_i.o(.text) refers to leakage_i.o(.constdata) for .constdata
    led.o(.text) refers to ad7176.o(.text) for Read_AD7176_Average_Voltage_mV
    led.o(.text) refers to other.o(.text) for Average_Fun
    led.o(.text) refers to ddiv.o(x$fpl$ddiv) for __aeabi_ddiv
    led.o(.text) refers to lcd3033.o(.text) for cyc4or3run
    led.o(.text) refers to f2d.o(x$fpl$f2d) for __aeabi_f2d
    led.o(.text) refers to dleqf.o(x$fpl$dleqf) for __aeabi_cdcmple
    led.o(.text) refers to drleqf.o(x$fpl$drleqf) for __aeabi_cdrcmple
    led.o(.text) refers to d2f.o(x$fpl$d2f) for __aeabi_d2f
    led.o(.text) refers to delay.o(.text) for delay_us
    led.o(.text) refers to frleqf.o(x$fpl$frleqf) for __aeabi_cfrcmple
    led.o(.text) refers to fleqf.o(x$fpl$fleqf) for __aeabi_cfcmple
    led.o(.text) refers to fre.o(.text) for Get_Color_Fre
    led.o(.text) refers to dmul.o(x$fpl$dmul) for __aeabi_dmul
    led.o(.text) refers to test_config.o(.bss) for TestConfig
    led.o(.text) refers to base_config.o(.bss) for Fixture
    led.o(.text) refers to test_config.o(.constdata) for Item
    led.o(.text) refers to lcd3033.o(.data) for lcdcon
    led.o(.text) refers to led.o(.data) for ColorRatio_Num
    led.o(.text) refers to led.o(.constdata) for ColorRatio
    led.o(.text) refers to sup_fun.o(.text) for Relay_Drive
    led.o(.text) refers to dfixu.o(x$fpl$dfixu) for __aeabi_d2uiz
    led.o(.text) refers to dac.o(.text) for DAC_Set_Vol
    led.o(.text) refers to analog_switch.o(.text) for Open_Two_Point
    switch.o(.text) refers to ad7176.o(.text) for Read_AD7176_Average_Voltage_mV
    switch.o(.text) refers to delay.o(.text) for delay_us
    switch.o(.text) refers to deqf.o(x$fpl$deqf) for __aeabi_cdcmpeq
    switch.o(.text) refers to ddiv.o(x$fpl$ddiv) for __aeabi_ddiv
    switch.o(.text) refers to dmul.o(x$fpl$dmul) for __aeabi_dmul
    switch.o(.text) refers to strstr.o(.text) for strstr
    switch.o(.text) refers to drleqf.o(x$fpl$drleqf) for __aeabi_cdrcmple
    switch.o(.text) refers to lcd3033.o(.text) for cyc4or3run
    switch.o(.text) refers to sup_fun.o(.text) for Valve_Drive
    switch.o(.text) refers to f2d.o(x$fpl$f2d) for __aeabi_f2d
    switch.o(.text) refers to dleqf.o(x$fpl$dleqf) for __aeabi_cdcmple
    switch.o(.text) refers to d2f.o(x$fpl$d2f) for __aeabi_d2f
    switch.o(.text) refers to other.o(.text) for Average_Fun
    switch.o(.text) refers to os.o(.text) for Res_4wire_Test
    switch.o(.text) refers to frleqf.o(x$fpl$frleqf) for __aeabi_cfrcmple
    switch.o(.text) refers to fleqf.o(x$fpl$fleqf) for __aeabi_cfcmple
    switch.o(.text) refers to test_config.o(.constdata) for Item
    switch.o(.text) refers to test_config.o(.bss) for TestConfig
    switch.o(.text) refers to base_config.o(.bss) for Fixture
    switch.o(.text) refers to lcd3033.o(.data) for lcdcon
    switch.o(.text) refers to dfixu.o(x$fpl$dfixu) for __aeabi_d2uiz
    switch.o(.text) refers to dac.o(.text) for DAC_Set_Vol
    switch.o(.text) refers to analog_switch.o(.text) for Open_Two_Point
    switch.o(.text) refers to dflt_clz.o(x$fpl$dfltu) for __aeabi_ui2d
    switch.o(.text) refers to switch.o(.constdata) for .constdata
    id.o(.text) refers to net_iic.o(.text) for Read_OneByteFromDevice
    id.o(.text) refers to fflt_clz.o(x$fpl$ffltu) for __aeabi_ui2f
    id.o(.text) refers to delay.o(.text) for delay_us
    id.o(.text) refers to lcd3033.o(.text) for cyc4or3run
    id.o(.text) refers to ffixu.o(x$fpl$ffixu) for __aeabi_f2uiz
    id.o(.text) refers to other.o(.text) for startkeywait
    id.o(.text) refers to frleqf.o(x$fpl$frleqf) for __aeabi_cfrcmple
    id.o(.text) refers to fleqf.o(x$fpl$fleqf) for __aeabi_cfcmple
    id.o(.text) refers to dac.o(.text) for DAC_Set_Vol
    id.o(.text) refers to sup_fun.o(.text) for Relay_Drive
    id.o(.text) refers to analog_switch.o(.text) for Close_All_Point
    id.o(.text) refers to test_config.o(.constdata) for Item
    id.o(.text) refers to test_config.o(.bss) for Item_Data
    id.o(.text) refers to base_config.o(.bss) for Fixture
    id.o(.text) refers to lcd3033.o(.data) for lcdcon
    id.o(.text) refers to reg_config.o(.text) for RevertStartupScreen
    subus.o(.text) refers to delay.o(.text) for delay_ms
    subus.o(.text) refers to usart.o(.text) for RESET_UART
    subus.o(.text) refers to stm32f10x_gpio.o(.text) for GPIO_Init
    subus.o(.text) refers to usart3.o(.text) for uart3_init
    subus.o(.text) refers to subus.o(.data) for USID
    rf.o(.text) refers to stm32f10x_gpio.o(.text) for GPIO_Init
    rf.o(.text) refers to usart3.o(.text) for uart3_init
    rf.o(.text) refers to sup_fun.o(.text) for Valve_Drive
    rf.o(.text) refers to delay.o(.text) for delay_ms
    rf.o(.text) refers to atof.o(i.atof) for atof
    rf.o(.text) refers to dfixu.o(x$fpl$dfixu) for __aeabi_d2uiz
    rf.o(.text) refers to subus.o(.text) for SetRFSwitchStatus
    rf.o(.text) refers to usart.o(.text) for Uart_printf
    rf.o(.text) refers to lcd3033.o(.text) for cyc4or3run
    rf.o(.text) refers to strstr.o(.text) for strstr
    rf.o(.text) refers to other.o(.text) for startkeywait
    rf.o(.text) refers to rf.o(.data) for Sbuds_Relay_Status
    rf.o(.text) refers to lcd3033.o(.data) for lcdcon
    rf.o(.text) refers to analog_switch.o(.text) for Close_All_Point
    rf.o(.text) refers to reg_config.o(.text) for RevertStartupScreen
    rf.o(.text) refers to base_config.o(.bss) for Fixture
    rf_id.o(.text) refers to rf.o(.text) for SbudsCondition
    rf_id.o(.text) refers to subus.o(.text) for ReadRegValue
    rf_id.o(.text) refers to fflt_clz.o(x$fpl$ffltu) for __aeabi_ui2f
    rf_id.o(.text) refers to ffixu.o(x$fpl$ffixu) for __aeabi_f2uiz
    rf_id.o(.text) refers to fflt_clz.o(x$fpl$fflt) for __aeabi_i2f
    rf_id.o(.text) refers to lcd3033.o(.text) for cyc4or3run
    rf_id.o(.text) refers to delay.o(.text) for delay_ms
    rf_id.o(.text) refers to other.o(.text) for startkeywait
    rf_id.o(.text) refers to frleqf.o(x$fpl$frleqf) for __aeabi_cfrcmple
    rf_id.o(.text) refers to fleqf.o(x$fpl$fleqf) for __aeabi_cfcmple
    rf_id.o(.text) refers to test_config.o(.constdata) for Item
    rf_id.o(.text) refers to base_config.o(.bss) for Fixture
    rf_id.o(.text) refers to test_config.o(.bss) for Item_Data
    rf_id.o(.text) refers to lcd3033.o(.data) for lcdcon
    wtb.o(.text) refers to dfixu.o(x$fpl$dfixu) for __aeabi_d2uiz
    wtb.o(.text) refers to usart.o(.text) for Uart_printf
    wtb.o(.text) refers to lcd3033.o(.text) for lcdpos
    wtb.o(.text) refers to data.o(.text) for WTB_Software_Upload_Test_Item
    wtb.o(.text) refers to reg_config.o(.text) for clear_counter
    wtb.o(.text) refers to strstr.o(.text) for strstr
    wtb.o(.text) refers to barcode.o(.text) for Set_Scan_Result
    wtb.o(.text) refers to ad7176.o(.text) for MCUISP_Hander
    wtb.o(.text) refers to rt_memclr_w.o(.text) for __aeabi_memclr4
    wtb.o(.text) refers to strlen.o(.text) for strlen
    wtb.o(.text) refers to aeabi_memset.o(.text) for __aeabi_memset
    wtb.o(.text) refers to wtb.o(.data) for Cmd_Handler
    wtb.o(.text) refers to reg_config.o(.data) for Reg
    wtb.o(.text) refers to base_config.o(.bss) for Fixture
    wtb.o(.text) refers to test_config.o(.bss) for TestConfig
    wtb.o(.data) refers to wtb.o(.text) for Connect_Handler
    wtb.o(.data) refers to data.o(.text) for UploadShortGroup
    wtb.o(.data) refers to base_config.o(.text) for UploadFixtureConfig
    wtb.o(.data) refers to wtb.o(.conststring) for .conststring
    zdt.o(.text) refers to usart.o(.text) for Uart_printf
    zdt.o(.text) refers to strstr.o(.text) for strstr
    zdt.o(.text) refers to barcode.o(.text) for Set_Scan_Result
    zdt.o(.text) refers to lcd3033.o(.text) for lcdreset
    zdt.o(.text) refers to ad7176.o(.text) for MCUISP_Hander
    zdt.o(.text) refers to rt_memclr_w.o(.text) for __aeabi_memclr4
    zdt.o(.text) refers to base_config.o(.bss) for Fixture
    zdt.o(.text) refers to zdt.o(.data) for Stop_Upper_Cmd
    zdt.o(.text) refers to reg_config.o(.data) for Scan
    zdt.o(.text) refers to wtb.o(.data) for MCUISP
    zdt.o(.data) refers to zdt.o(.conststring) for .conststring
    data.o(.text) refers to _printf_percent.o(.ARM.Collect$$_printf_percent$$00000000) for _printf_percent
    data.o(.text) refers to _printf_f.o(.ARM.Collect$$_printf_percent$$00000003) for _printf_f
    data.o(.text) refers to _printf_s.o(.ARM.Collect$$_printf_percent$$00000014) for _printf_s
    data.o(.text) refers to printf1.o(x$fpl$printf1) for _printf_fp_dec
    data.o(.text) refers to _printf_str.o(.text) for _printf_str
    data.o(.text) refers to _printf_g.o(.ARM.Collect$$_printf_percent$$00000005) for _printf_g
    data.o(.text) refers to rt_memclr.o(.text) for __aeabi_memclr
    data.o(.text) refers to f2d.o(x$fpl$f2d) for __aeabi_f2d
    data.o(.text) refers to __2sprintf.o(.text) for __2sprintf
    data.o(.text) refers to dfixu.o(x$fpl$dfixu) for __aeabi_d2uiz
    data.o(.text) refers to usart.o(.text) for Uart_printf
    data.o(.text) refers to short.o(.constdata) for ShortGroup
    data.o(.text) refers to open.o(.constdata) for OpenGroup
    data.o(.text) refers to test_config.o(.constdata) for Item
    data.o(.text) refers to test_config.o(.bss) for TestConfig
    data.o(.text) refers to short.o(.bss) for SHORT_RES
    data.o(.text) refers to open.o(.bss) for Open_Data
    data.o(.text) refers to rf.o(.data) for RF_Total_Result
    data.o(.text) refers to reg_config.o(.data) for Reg
    data.o(.text) refers to base_config.o(.bss) for Fixture
    data.o(.text) refers to os.o(.data) for Pin_Name
    data.o(.text) refers to test_config.o(.text) for Get_Currennt_Type_CNT
    data.o(.text) refers to rt_memclr_w.o(.text) for __aeabi_memclr4
    data.o(.text) refers to wtb.o(.text) for WTB_Software_Get_Save_Result
    data.o(.text) refers to list_test.o(.bss) for Step_buffer
    data.o(.text) refers to wtb.o(.data) for Soft_Start_Test
    data.o(.text) refers to barcode.o(.text) for Get_Scan_Mode
    data.o(.text) refers to zdt.o(.text) for ZDT_Software_Get_Save_Result
    data.o(.text) refers to data.o(.conststring) for .conststring
    data.o(.text) refers to strlen.o(.text) for strlen
    data.o(.text) refers to aeabi_memset.o(.text) for __aeabi_memset
    data.o(.text) refers to strcat.o(.text) for strcat
    cmd.o(.text) refers to dfixu.o(x$fpl$dfixu) for __aeabi_d2uiz
    cmd.o(.text) refers to menu.o(.text) for Choice_Menu_Num
    cmd.o(.text) refers to dflt_clz.o(x$fpl$dfltu) for __aeabi_ui2d
    cmd.o(.text) refers to reg_config.o(.text) for Save_Single_Reg_Value
    cmd.o(.text) refers to wtb.o(.text) for WTB_Software_Cmd_Check
    cmd.o(.text) refers to zdt.o(.text) for ZDT_Software_Cmd_Check
    cmd.o(.text) refers to reg_config.o(.data) for Reg
    cmd.o(.text) refers to base_config.o(.bss) for Fixture
    use_no_semi_2.o(.text) refers (Special) to use_no_semi.o(.text) for __use_no_semihosting_swi
    c89vsprintf.o(.text) refers (Special) to _printf_a.o(.ARM.Collect$$_printf_percent$$00000006) for _printf_a
    c89vsprintf.o(.text) refers (Special) to _printf_c.o(.ARM.Collect$$_printf_percent$$00000013) for _printf_c
    c89vsprintf.o(.text) refers (Special) to _printf_charcount.o(.text) for _printf_charcount
    c89vsprintf.o(.text) refers (Special) to _printf_d.o(.ARM.Collect$$_printf_percent$$00000009) for _printf_d
    c89vsprintf.o(.text) refers (Special) to _printf_e.o(.ARM.Collect$$_printf_percent$$00000004) for _printf_e
    c89vsprintf.o(.text) refers (Special) to _printf_f.o(.ARM.Collect$$_printf_percent$$00000003) for _printf_f
    c89vsprintf.o(.text) refers (Special) to printf1.o(x$fpl$printf1) for _printf_fp_dec
    c89vsprintf.o(.text) refers (Special) to _printf_g.o(.ARM.Collect$$_printf_percent$$00000005) for _printf_g
    c89vsprintf.o(.text) refers (Special) to _printf_i.o(.ARM.Collect$$_printf_percent$$00000008) for _printf_i
    c89vsprintf.o(.text) refers (Special) to _printf_dec.o(.text) for _printf_int_dec
    c89vsprintf.o(.text) refers (Special) to _printf_l.o(.ARM.Collect$$_printf_percent$$00000012) for _printf_l
    c89vsprintf.o(.text) refers (Special) to _printf_lc.o(.ARM.Collect$$_printf_percent$$00000015) for _printf_lc
    c89vsprintf.o(.text) refers (Special) to _printf_ll.o(.ARM.Collect$$_printf_percent$$00000007) for _printf_ll
    c89vsprintf.o(.text) refers (Special) to _printf_lld.o(.ARM.Collect$$_printf_percent$$0000000E) for _printf_lld
    c89vsprintf.o(.text) refers (Special) to _printf_lli.o(.ARM.Collect$$_printf_percent$$0000000D) for _printf_lli
    c89vsprintf.o(.text) refers (Special) to _printf_llo.o(.ARM.Collect$$_printf_percent$$00000010) for _printf_llo
    c89vsprintf.o(.text) refers (Special) to _printf_llu.o(.ARM.Collect$$_printf_percent$$0000000F) for _printf_llu
    c89vsprintf.o(.text) refers (Special) to _printf_llx.o(.ARM.Collect$$_printf_percent$$00000011) for _printf_llx
    c89vsprintf.o(.text) refers (Special) to _printf_longlong_dec.o(.text) for _printf_longlong_dec
    c89vsprintf.o(.text) refers (Special) to _printf_hex_int_ll_ptr.o(.text) for _printf_longlong_hex
    c89vsprintf.o(.text) refers (Special) to _printf_oct_int_ll.o(.text) for _printf_longlong_oct
    c89vsprintf.o(.text) refers (Special) to _printf_ls.o(.ARM.Collect$$_printf_percent$$00000016) for _printf_ls
    c89vsprintf.o(.text) refers (Special) to _printf_n.o(.ARM.Collect$$_printf_percent$$00000001) for _printf_n
    c89vsprintf.o(.text) refers (Special) to _printf_o.o(.ARM.Collect$$_printf_percent$$0000000B) for _printf_o
    c89vsprintf.o(.text) refers (Special) to _printf_p.o(.ARM.Collect$$_printf_percent$$00000002) for _printf_p
    c89vsprintf.o(.text) refers (Special) to _printf_percent.o(.ARM.Collect$$_printf_percent$$00000000) for _printf_percent
    c89vsprintf.o(.text) refers (Special) to _printf_pad.o(.text) for _printf_post_padding
    c89vsprintf.o(.text) refers (Special) to _printf_s.o(.ARM.Collect$$_printf_percent$$00000014) for _printf_s
    c89vsprintf.o(.text) refers (Special) to _printf_str.o(.text) for _printf_str
    c89vsprintf.o(.text) refers (Special) to _printf_truncate.o(.text) for _printf_truncate_signed
    c89vsprintf.o(.text) refers (Special) to _printf_u.o(.ARM.Collect$$_printf_percent$$0000000A) for _printf_u
    c89vsprintf.o(.text) refers (Special) to _printf_wctomb.o(.text) for _printf_wctomb
    c89vsprintf.o(.text) refers (Special) to _printf_x.o(.ARM.Collect$$_printf_percent$$0000000C) for _printf_x
    c89vsprintf.o(.text) refers to _printf_char_common.o(.text) for _printf_char_common
    c89vsprintf.o(.text) refers to _sputc.o(.text) for _sputc
    __2printf.o(.text) refers to _printf_char_file.o(.text) for _printf_char_file
    __2printf.o(.text) refers to usart.o(.data) for __stdout
    __2sprintf.o(.text) refers to _printf_char_common.o(.text) for _printf_char_common
    __2sprintf.o(.text) refers to _sputc.o(.text) for _sputc
    noretval__2printf.o(.text) refers to _printf_char_file.o(.text) for _printf_char_file
    noretval__2printf.o(.text) refers to usart.o(.data) for __stdout
    noretval__2sprintf.o(.text) refers to _printf_char_common.o(.text) for _printf_char_common
    noretval__2sprintf.o(.text) refers to _sputc.o(.text) for _sputc
    __printf.o(.text) refers to _printf_percent.o(.ARM.Collect$$_printf_percent$$00000000) for _printf_percent
    _printf_str.o(.text) refers (Special) to _printf_char.o(.text) for _printf_cs_common
    _printf_str.o(.text) refers (Weak) to _printf_pad.o(.text) for _printf_pre_padding
    _printf_str.o(.text) refers (Weak) to _printf_pad.o(.text) for _printf_post_padding
    _printf_dec.o(.text) refers (Weak) to _printf_truncate.o(.text) for _printf_truncate_signed
    _printf_dec.o(.text) refers (Weak) to _printf_truncate.o(.text) for _printf_truncate_unsigned
    _printf_dec.o(.text) refers to _printf_intcommon.o(.text) for _printf_int_common
    __printf_flags.o(.text) refers to _printf_percent.o(.ARM.Collect$$_printf_percent$$00000000) for _printf_percent
    __printf_flags.o(.text) refers to __printf_flags.o(.constdata) for .constdata
    __printf_ss.o(.text) refers to _printf_percent.o(.ARM.Collect$$_printf_percent$$00000000) for _printf_percent
    __printf_flags_ss.o(.text) refers to _printf_percent.o(.ARM.Collect$$_printf_percent$$00000000) for _printf_percent
    __printf_flags_ss.o(.text) refers to __printf_flags_ss.o(.constdata) for .constdata
    __printf_wp.o(.text) refers to __printf_wp.o(i._is_digit) for _is_digit
    __printf_wp.o(.text) refers to _printf_percent.o(.ARM.Collect$$_printf_percent$$00000000) for _printf_percent
    __printf_flags_wp.o(.text) refers to __printf_wp.o(i._is_digit) for _is_digit
    __printf_flags_wp.o(.text) refers to _printf_percent.o(.ARM.Collect$$_printf_percent$$00000000) for _printf_percent
    __printf_flags_wp.o(.text) refers to __printf_flags_wp.o(.constdata) for .constdata
    __printf_ss_wp.o(.text) refers to __printf_wp.o(i._is_digit) for _is_digit
    __printf_ss_wp.o(.text) refers to _printf_percent.o(.ARM.Collect$$_printf_percent$$00000000) for _printf_percent
    __printf_flags_ss_wp.o(.text) refers to __printf_wp.o(i._is_digit) for _is_digit
    __printf_flags_ss_wp.o(.text) refers to _printf_percent.o(.ARM.Collect$$_printf_percent$$00000000) for _printf_percent
    __printf_flags_ss_wp.o(.text) refers to __printf_flags_ss_wp.o(.constdata) for .constdata
    _printf_s.o(.ARM.Collect$$_printf_percent$$00000014) refers (Weak) to _printf_char.o(.text) for _printf_string
    _printf_d.o(.ARM.Collect$$_printf_percent$$00000009) refers (Weak) to _printf_dec.o(.text) for _printf_int_dec
    _printf_f.o(.ARM.Collect$$_printf_percent$$00000003) refers (Weak) to printf1.o(x$fpl$printf1) for _printf_fp_dec
    _printf_g.o(.ARM.Collect$$_printf_percent$$00000005) refers (Weak) to printf1.o(x$fpl$printf1) for _printf_fp_dec
    _printf_percent.o(.ARM.Collect$$_printf_percent$$00000000) refers (Special) to _printf_percent_end.o(.ARM.Collect$$_printf_percent$$00000017) for _printf_percent_end
    atoi.o(.text) refers to rt_errno_addr_intlibspace.o(.text) for __aeabi_errno_addr
    atoi.o(.text) refers to strtol.o(.text) for strtol
    aeabi_memset.o(.text) refers to rt_memclr.o(.text) for _memset
    rt_memclr.o(.text) refers to rt_memclr_w.o(.text) for _memset_w
    strncpy.o(.text) refers to rt_memclr.o(.text) for __aeabi_memclr
    __main.o(!!!main) refers to __rtentry.o(.ARM.Collect$$rtentry$$00000000) for __rt_entry
    d2f.o(x$fpl$d2f) refers (Special) to usenofp.o(x$fpl$usenofp) for __I$use$fp
    d2f.o(x$fpl$d2f) refers to fretinf.o(x$fpl$fretinf) for __fpl_fretinf
    d2f.o(x$fpl$d2f) refers to dnaninf.o(x$fpl$dnaninf) for __fpl_dnaninf
    daddsub_clz.o(x$fpl$dadd) refers (Special) to usenofp.o(x$fpl$usenofp) for __I$use$fp
    daddsub_clz.o(x$fpl$dadd) refers to daddsub_clz.o(x$fpl$dsub) for _dsub1
    daddsub_clz.o(x$fpl$dadd) refers to dretinf.o(x$fpl$dretinf) for __fpl_dretinf
    daddsub_clz.o(x$fpl$dadd) refers to dnaninf.o(x$fpl$dnaninf) for __fpl_dnaninf
    daddsub_clz.o(x$fpl$drsb) refers (Special) to usenofp.o(x$fpl$usenofp) for __I$use$fp
    daddsub_clz.o(x$fpl$drsb) refers to daddsub_clz.o(x$fpl$dadd) for _dadd1
    daddsub_clz.o(x$fpl$drsb) refers to daddsub_clz.o(x$fpl$dsub) for _dsub1
    daddsub_clz.o(x$fpl$dsub) refers (Special) to usenofp.o(x$fpl$usenofp) for __I$use$fp
    daddsub_clz.o(x$fpl$dsub) refers to daddsub_clz.o(x$fpl$dadd) for _dadd1
    daddsub_clz.o(x$fpl$dsub) refers to dnaninf.o(x$fpl$dnaninf) for __fpl_dnaninf
    ddiv.o(x$fpl$drdiv) refers (Special) to usenofp.o(x$fpl$usenofp) for __I$use$fp
    ddiv.o(x$fpl$drdiv) refers to ddiv.o(x$fpl$ddiv) for ddiv_entry
    ddiv.o(x$fpl$ddiv) refers (Special) to usenofp.o(x$fpl$usenofp) for __I$use$fp
    ddiv.o(x$fpl$ddiv) refers to dretinf.o(x$fpl$dretinf) for __fpl_dretinf
    ddiv.o(x$fpl$ddiv) refers to dnaninf.o(x$fpl$dnaninf) for __fpl_dnaninf
    deqf.o(x$fpl$deqf) refers (Special) to usenofp.o(x$fpl$usenofp) for __I$use$fp
    deqf.o(x$fpl$deqf) refers to dnaninf.o(x$fpl$dnaninf) for __fpl_dnaninf
    deqf.o(x$fpl$deqf) refers to dcmpi.o(x$fpl$dcmpinf) for __fpl_dcmp_Inf
    dfix.o(x$fpl$dfix) refers (Special) to usenofp.o(x$fpl$usenofp) for __I$use$fp
    dfix.o(x$fpl$dfix) refers to dnaninf.o(x$fpl$dnaninf) for __fpl_dnaninf
    dfix.o(x$fpl$dfixr) refers (Special) to usenofp.o(x$fpl$usenofp) for __I$use$fp
    dfix.o(x$fpl$dfixr) refers to dnaninf.o(x$fpl$dnaninf) for __fpl_dnaninf
    dfixu.o(x$fpl$dfixu) refers (Special) to usenofp.o(x$fpl$usenofp) for __I$use$fp
    dfixu.o(x$fpl$dfixu) refers to dnaninf.o(x$fpl$dnaninf) for __fpl_dnaninf
    dfixu.o(x$fpl$dfixur) refers (Special) to usenofp.o(x$fpl$usenofp) for __I$use$fp
    dfixu.o(x$fpl$dfixur) refers to dnaninf.o(x$fpl$dnaninf) for __fpl_dnaninf
    dflt_clz.o(x$fpl$dfltu) refers (Special) to usenofp.o(x$fpl$usenofp) for __I$use$fp
    dflt_clz.o(x$fpl$dflt) refers (Special) to usenofp.o(x$fpl$usenofp) for __I$use$fp
    dflt_clz.o(x$fpl$dfltn) refers (Special) to usenofp.o(x$fpl$usenofp) for __I$use$fp
    dleqf.o(x$fpl$dleqf) refers (Special) to usenofp.o(x$fpl$usenofp) for __I$use$fp
    dleqf.o(x$fpl$dleqf) refers to dnaninf.o(x$fpl$dnaninf) for __fpl_dnaninf
    dleqf.o(x$fpl$dleqf) refers to dcmpi.o(x$fpl$dcmpinf) for __fpl_dcmp_Inf
    dmul.o(x$fpl$dmul) refers (Special) to usenofp.o(x$fpl$usenofp) for __I$use$fp
    dmul.o(x$fpl$dmul) refers to dretinf.o(x$fpl$dretinf) for __fpl_dretinf
    dmul.o(x$fpl$dmul) refers to dnaninf.o(x$fpl$dnaninf) for __fpl_dnaninf
    drleqf.o(x$fpl$drleqf) refers (Special) to usenofp.o(x$fpl$usenofp) for __I$use$fp
    drleqf.o(x$fpl$drleqf) refers to dleqf.o(x$fpl$dleqf) for __fpl_dcmple_InfNaN
    f2d.o(x$fpl$f2d) refers (Special) to usenofp.o(x$fpl$usenofp) for __I$use$fp
    f2d.o(x$fpl$f2d) refers to fnaninf.o(x$fpl$fnaninf) for __fpl_fnaninf
    f2d.o(x$fpl$f2d) refers to dretinf.o(x$fpl$dretinf) for __fpl_dretinf
    faddsub_clz.o(x$fpl$fadd) refers (Special) to usenofp.o(x$fpl$usenofp) for __I$use$fp
    faddsub_clz.o(x$fpl$fadd) refers to faddsub_clz.o(x$fpl$fsub) for _fsub1
    faddsub_clz.o(x$fpl$fadd) refers to fretinf.o(x$fpl$fretinf) for __fpl_fretinf
    faddsub_clz.o(x$fpl$fadd) refers to fnaninf.o(x$fpl$fnaninf) for __fpl_fnaninf
    faddsub_clz.o(x$fpl$frsb) refers (Special) to usenofp.o(x$fpl$usenofp) for __I$use$fp
    faddsub_clz.o(x$fpl$frsb) refers to faddsub_clz.o(x$fpl$fadd) for _fadd1
    faddsub_clz.o(x$fpl$frsb) refers to faddsub_clz.o(x$fpl$fsub) for _fsub1
    faddsub_clz.o(x$fpl$fsub) refers (Special) to usenofp.o(x$fpl$usenofp) for __I$use$fp
    faddsub_clz.o(x$fpl$fsub) refers to faddsub_clz.o(x$fpl$fadd) for _fadd1
    faddsub_clz.o(x$fpl$fsub) refers to fnaninf.o(x$fpl$fnaninf) for __fpl_fnaninf
    fdiv.o(x$fpl$frdiv) refers (Special) to usenofp.o(x$fpl$usenofp) for __I$use$fp
    fdiv.o(x$fpl$frdiv) refers to fdiv.o(x$fpl$fdiv) for _fdiv1
    fdiv.o(x$fpl$fdiv) refers (Special) to usenofp.o(x$fpl$usenofp) for __I$use$fp
    fdiv.o(x$fpl$fdiv) refers to fretinf.o(x$fpl$fretinf) for __fpl_fretinf
    fdiv.o(x$fpl$fdiv) refers to fnaninf.o(x$fpl$fnaninf) for __fpl_fnaninf
    ffixu.o(x$fpl$ffixu) refers (Special) to usenofp.o(x$fpl$usenofp) for __I$use$fp
    ffixu.o(x$fpl$ffixu) refers to fnaninf.o(x$fpl$fnaninf) for __fpl_fnaninf
    ffixu.o(x$fpl$ffixur) refers (Special) to usenofp.o(x$fpl$usenofp) for __I$use$fp
    ffixu.o(x$fpl$ffixur) refers to fnaninf.o(x$fpl$fnaninf) for __fpl_fnaninf
    fflt_clz.o(x$fpl$ffltu) refers (Special) to usenofp.o(x$fpl$usenofp) for __I$use$fp
    fflt_clz.o(x$fpl$fflt) refers (Special) to usenofp.o(x$fpl$usenofp) for __I$use$fp
    fflt_clz.o(x$fpl$ffltn) refers (Special) to usenofp.o(x$fpl$usenofp) for __I$use$fp
    fleqf.o(x$fpl$fleqf) refers (Special) to usenofp.o(x$fpl$usenofp) for __I$use$fp
    fleqf.o(x$fpl$fleqf) refers to fnaninf.o(x$fpl$fnaninf) for __fpl_fnaninf
    fleqf.o(x$fpl$fleqf) refers to fcmpi.o(x$fpl$fcmpinf) for __fpl_fcmp_Inf
    fmul.o(x$fpl$fmul) refers (Special) to usenofp.o(x$fpl$usenofp) for __I$use$fp
    fmul.o(x$fpl$fmul) refers to fretinf.o(x$fpl$fretinf) for __fpl_fretinf
    fmul.o(x$fpl$fmul) refers to fnaninf.o(x$fpl$fnaninf) for __fpl_fnaninf
    frleqf.o(x$fpl$frleqf) refers (Special) to usenofp.o(x$fpl$usenofp) for __I$use$fp
    frleqf.o(x$fpl$frleqf) refers to fleqf.o(x$fpl$fleqf) for __fpl_fcmple_InfNaN
    printf1.o(x$fpl$printf1) refers to _printf_fp_dec.o(.text) for _printf_fp_dec_real
    atof.o(i.__softfp_atof) refers (Special) to usenofp.o(x$fpl$usenofp) for __I$use$fp
    atof.o(i.__softfp_atof) refers to _rserrno.o(.text) for __read_errno
    atof.o(i.__softfp_atof) refers to strtod.o(.text) for __strtod_int
    atof.o(i.atof) refers (Special) to usenofp.o(x$fpl$usenofp) for __I$use$fp
    atof.o(i.atof) refers to _rserrno.o(.text) for __read_errno
    atof.o(i.atof) refers to strtod.o(.text) for __strtod_int
    pow.o(i.__softfp_pow) refers (Special) to usenofp.o(x$fpl$usenofp) for __I$use$fp
    pow.o(i.__softfp_pow) refers to pow.o(i.pow) for pow
    pow.o(i.pow) refers (Special) to usenofp.o(x$fpl$usenofp) for __I$use$fp
    pow.o(i.pow) refers to dunder.o(i.__mathlib_dbl_infnan2) for __mathlib_dbl_infnan2
    pow.o(i.pow) refers to _rserrno.o(.text) for __set_errno
    pow.o(i.pow) refers to dunder.o(i.__mathlib_dbl_divzero) for __mathlib_dbl_divzero
    pow.o(i.pow) refers to dunder.o(i.__mathlib_dbl_overflow) for __mathlib_dbl_overflow
    pow.o(i.pow) refers to ddiv.o(x$fpl$ddiv) for __aeabi_ddiv
    pow.o(i.pow) refers to sqrt.o(i.sqrt) for sqrt
    pow.o(i.pow) refers to dmul.o(x$fpl$dmul) for __aeabi_dmul
    pow.o(i.pow) refers to dunder.o(i.__mathlib_dbl_invalid) for __mathlib_dbl_invalid
    pow.o(i.pow) refers to dunder.o(i.__mathlib_dbl_underflow) for __mathlib_dbl_underflow
    pow.o(i.pow) refers to daddsub_clz.o(x$fpl$dsub) for __aeabi_dsub
    pow.o(i.pow) refers to scalbn.o(x$fpl$scalbn) for __ARM_scalbn
    pow.o(i.pow) refers to daddsub_clz.o(x$fpl$drsb) for __aeabi_drsub
    pow.o(i.pow) refers to daddsub_clz.o(x$fpl$dadd) for __aeabi_dadd
    pow.o(i.pow) refers to qnan.o(.constdata) for __mathlib_zero
    pow.o(i.pow) refers to poly.o(i.__kernel_poly) for __kernel_poly
    pow.o(i.pow) refers to dflt_clz.o(x$fpl$dflt) for __aeabi_i2d
    pow.o(i.pow) refers to drleqf.o(x$fpl$drleqf) for __aeabi_cdrcmple
    pow.o(i.pow) refers to pow.o(.constdata) for .constdata
    pow.o(i.pow) refers to fpclassify.o(i.__ARM_fpclassify) for __ARM_fpclassify
    pow.o(.constdata) refers (Special) to usenofp.o(x$fpl$usenofp) for __I$use$fp
    pow_x.o(i.____softfp_pow$lsc) refers (Special) to usenofp.o(x$fpl$usenofp) for __I$use$fp
    pow_x.o(i.____softfp_pow$lsc) refers to pow_x.o(i.__pow$lsc) for __pow$lsc
    pow_x.o(i.__pow$lsc) refers (Special) to usenofp.o(x$fpl$usenofp) for __I$use$fp
    pow_x.o(i.__pow$lsc) refers to dunder.o(i.__mathlib_dbl_infnan2) for __mathlib_dbl_infnan2
    pow_x.o(i.__pow$lsc) refers to _rserrno.o(.text) for __set_errno
    pow_x.o(i.__pow$lsc) refers to ddiv.o(x$fpl$ddiv) for __aeabi_ddiv
    pow_x.o(i.__pow$lsc) refers to sqrt.o(i.sqrt) for sqrt
    pow_x.o(i.__pow$lsc) refers to dmul.o(x$fpl$dmul) for __aeabi_dmul
    pow_x.o(i.__pow$lsc) refers to dflt_clz.o(x$fpl$dflt) for __aeabi_i2d
    pow_x.o(i.__pow$lsc) refers to daddsub_clz.o(x$fpl$dsub) for __aeabi_dsub
    pow_x.o(i.__pow$lsc) refers to scalbn.o(x$fpl$scalbn) for __ARM_scalbn
    pow_x.o(i.__pow$lsc) refers to daddsub_clz.o(x$fpl$drsb) for __aeabi_drsub
    pow_x.o(i.__pow$lsc) refers to daddsub_clz.o(x$fpl$dadd) for __aeabi_dadd
    pow_x.o(i.__pow$lsc) refers to qnan.o(.constdata) for __mathlib_zero
    pow_x.o(i.__pow$lsc) refers to pow_x.o(.constdata) for .constdata
    pow_x.o(i.__pow$lsc) refers to poly.o(i.__kernel_poly) for __kernel_poly
    pow_x.o(i.__pow$lsc) refers to drleqf.o(x$fpl$drleqf) for __aeabi_cdrcmple
    pow_x.o(.constdata) refers (Special) to usenofp.o(x$fpl$usenofp) for __I$use$fp
    sqrt.o(i.__softfp_sqrt) refers (Special) to usenofp.o(x$fpl$usenofp) for __I$use$fp
    sqrt.o(i.__softfp_sqrt) refers to dsqrt_noumaal.o(x$fpl$dsqrt) for _dsqrt
    sqrt.o(i.__softfp_sqrt) refers to _rserrno.o(.text) for __set_errno
    sqrt.o(i.sqrt) refers (Special) to usenofp.o(x$fpl$usenofp) for __I$use$fp
    sqrt.o(i.sqrt) refers to dsqrt_noumaal.o(x$fpl$dsqrt) for _dsqrt
    sqrt.o(i.sqrt) refers to _rserrno.o(.text) for __set_errno
    sqrt_x.o(i.____softfp_sqrt$lsc) refers (Special) to usenofp.o(x$fpl$usenofp) for __I$use$fp
    sqrt_x.o(i.____softfp_sqrt$lsc) refers to dleqf.o(x$fpl$dleqf) for __aeabi_cdcmple
    sqrt_x.o(i.____softfp_sqrt$lsc) refers to _rserrno.o(.text) for __set_errno
    sqrt_x.o(i.____softfp_sqrt$lsc) refers to dsqrt_noumaal.o(x$fpl$dsqrt) for _dsqrt
    sqrt_x.o(i.__sqrt$lsc) refers (Special) to usenofp.o(x$fpl$usenofp) for __I$use$fp
    sqrt_x.o(i.__sqrt$lsc) refers to dleqf.o(x$fpl$dleqf) for __aeabi_cdcmple
    sqrt_x.o(i.__sqrt$lsc) refers to _rserrno.o(.text) for __set_errno
    sqrt_x.o(i.__sqrt$lsc) refers to dsqrt_noumaal.o(x$fpl$dsqrt) for _dsqrt
    __rtentry.o(.ARM.Collect$$rtentry$$00000000) refers (Special) to __rtentry2.o(.ARM.Collect$$rtentry$$0000000A) for __rt_entry_li
    __rtentry.o(.ARM.Collect$$rtentry$$00000000) refers (Special) to __rtentry2.o(.ARM.Collect$$rtentry$$0000000D) for __rt_entry_main
    __rtentry.o(.ARM.Collect$$rtentry$$00000000) refers (Special) to __rtentry2.o(.ARM.Collect$$rtentry$$0000000C) for __rt_entry_postli_1
    __rtentry.o(.ARM.Collect$$rtentry$$00000000) refers (Special) to __rtentry2.o(.ARM.Collect$$rtentry$$00000009) for __rt_entry_postsh_1
    __rtentry.o(.ARM.Collect$$rtentry$$00000000) refers (Special) to __rtentry2.o(.ARM.Collect$$rtentry$$00000002) for __rt_entry_presh_1
    __rtentry.o(.ARM.Collect$$rtentry$$00000000) refers (Special) to __rtentry4.o(.ARM.Collect$$rtentry$$00000004) for __rt_entry_sh
    rt_errno_addr.o(.text) refers to rt_errno_addr.o(.bss) for __aeabi_errno_addr_data
    rt_errno_addr_intlibspace.o(.text) refers to libspace.o(.bss) for __libspace_start
    _rserrno.o(.text) refers to rt_errno_addr_intlibspace.o(.text) for __aeabi_errno_addr
    _printf_intcommon.o(.text) refers (Weak) to _printf_pad.o(.text) for _printf_pre_padding
    _printf_intcommon.o(.text) refers (Weak) to _printf_pad.o(.text) for _printf_pre_padding
    _printf_intcommon.o(.text) refers (Weak) to _printf_pad.o(.text) for _printf_post_padding
    _printf_fp_dec.o(.text) refers (Special) to usenofp.o(x$fpl$usenofp) for __I$use$fp
    _printf_fp_dec.o(.text) refers (Special) to lc_numeric_c.o(locale$$code) for _get_lc_numeric
    _printf_fp_dec.o(.text) refers to bigflt0.o(.text) for _btod_etento
    _printf_fp_dec.o(.text) refers to btod.o(CL$$btod_d2e) for _btod_d2e
    _printf_fp_dec.o(.text) refers to btod.o(CL$$btod_ediv) for _btod_ediv
    _printf_fp_dec.o(.text) refers to btod.o(CL$$btod_emul) for _btod_emul
    _printf_fp_dec.o(.text) refers to lludiv10.o(.text) for _ll_udiv10
    _printf_fp_dec.o(.text) refers to fpclassify.o(i.__ARM_fpclassify) for __ARM_fpclassify
    _printf_fp_dec.o(.text) refers to _printf_fp_infnan.o(.text) for _printf_fp_infnan
    _printf_fp_dec.o(.text) refers (Weak) to _printf_pad.o(.text) for _printf_pre_padding
    _printf_fp_dec.o(.text) refers (Weak) to _printf_pad.o(.text) for _printf_pre_padding
    _printf_fp_dec.o(.text) refers to rt_locale_intlibspace.o(.text) for __rt_locale
    _printf_fp_dec.o(.text) refers (Weak) to _printf_pad.o(.text) for _printf_post_padding
    _printf_char_common.o(.text) refers to __printf_flags_ss_wp.o(.text) for __printf
    _printf_char.o(.text) refers (Weak) to _printf_str.o(.text) for _printf_str
    _printf_char_file.o(.text) refers to _printf_char_common.o(.text) for _printf_char_common
    _printf_char_file.o(.text) refers to ferror.o(.text) for ferror
    _printf_char_file.o(.text) refers to usart.o(.text) for fputc
    _printf_wctomb.o(.text) refers (Special) to _printf_wchar.o(.text) for _printf_lcs_common
    _printf_wctomb.o(.text) refers to _wcrtomb.o(.text) for _wcrtomb
    _printf_wctomb.o(.text) refers (Weak) to _printf_pad.o(.text) for _printf_pre_padding
    _printf_wctomb.o(.text) refers (Weak) to _printf_pad.o(.text) for _printf_post_padding
    _printf_wctomb.o(.text) refers to _printf_wctomb.o(.constdata) for .constdata
    _printf_wctomb.o(.constdata) refers (Special) to _printf_wchar.o(.text) for _printf_lcs_common
    _printf_longlong_dec.o(.text) refers to lludiv10.o(.text) for _ll_udiv10
    _printf_longlong_dec.o(.text) refers to _printf_intcommon.o(.text) for _printf_int_common
    _printf_oct_ll.o(.text) refers to _printf_intcommon.o(.text) for _printf_int_common
    _printf_oct_int.o(.text) refers (Weak) to _printf_truncate.o(.text) for _printf_truncate_unsigned
    _printf_oct_int.o(.text) refers to _printf_intcommon.o(.text) for _printf_int_common
    _printf_oct_int_ll.o(.text) refers to _printf_intcommon.o(.text) for _printf_int_common
    _printf_oct_int_ll.o(.text) refers (Weak) to _printf_truncate.o(.text) for _printf_truncate_unsigned
    _printf_hex_ll.o(.text) refers to _printf_intcommon.o(.text) for _printf_int_common
    _printf_hex_ll.o(.text) refers to _printf_hex_ll.o(.constdata) for .constdata
    _printf_hex_int.o(.text) refers (Weak) to _printf_truncate.o(.text) for _printf_truncate_unsigned
    _printf_hex_int.o(.text) refers to _printf_intcommon.o(.text) for _printf_int_common
    _printf_hex_int.o(.text) refers to _printf_hex_int.o(.constdata) for .constdata
    _printf_hex_int_ll.o(.text) refers to _printf_intcommon.o(.text) for _printf_int_common
    _printf_hex_int_ll.o(.text) refers (Weak) to _printf_truncate.o(.text) for _printf_truncate_unsigned
    _printf_hex_int_ll.o(.text) refers to _printf_hex_int_ll.o(.constdata) for .constdata
    _printf_hex_ptr.o(.text) refers to _printf_intcommon.o(.text) for _printf_int_common
    _printf_hex_ptr.o(.text) refers to _printf_hex_ptr.o(.constdata) for .constdata
    _printf_hex_int_ptr.o(.text) refers to _printf_intcommon.o(.text) for _printf_int_common
    _printf_hex_int_ptr.o(.text) refers (Weak) to _printf_truncate.o(.text) for _printf_truncate_unsigned
    _printf_hex_int_ptr.o(.text) refers to _printf_hex_int_ptr.o(.constdata) for .constdata
    _printf_hex_ll_ptr.o(.text) refers to _printf_intcommon.o(.text) for _printf_int_common
    _printf_hex_ll_ptr.o(.text) refers to _printf_hex_ll_ptr.o(.constdata) for .constdata
    _printf_hex_int_ll_ptr.o(.text) refers to _printf_intcommon.o(.text) for _printf_int_common
    _printf_hex_int_ll_ptr.o(.text) refers (Weak) to _printf_truncate.o(.text) for _printf_truncate_unsigned
    _printf_hex_int_ll_ptr.o(.text) refers to _printf_hex_int_ll_ptr.o(.constdata) for .constdata
    _printf_c.o(.ARM.Collect$$_printf_percent$$00000013) refers (Weak) to _printf_char.o(.text) for _printf_char
    _printf_n.o(.ARM.Collect$$_printf_percent$$00000001) refers (Weak) to _printf_charcount.o(.text) for _printf_charcount
    _printf_x.o(.ARM.Collect$$_printf_percent$$0000000C) refers (Weak) to _printf_hex_int_ll_ptr.o(.text) for _printf_int_hex
    _printf_p.o(.ARM.Collect$$_printf_percent$$00000002) refers (Weak) to _printf_hex_int_ll_ptr.o(.text) for _printf_hex_ptr
    _printf_o.o(.ARM.Collect$$_printf_percent$$0000000B) refers (Weak) to _printf_oct_int_ll.o(.text) for _printf_int_oct
    _printf_i.o(.ARM.Collect$$_printf_percent$$00000008) refers (Weak) to _printf_dec.o(.text) for _printf_int_dec
    _printf_u.o(.ARM.Collect$$_printf_percent$$0000000A) refers (Weak) to _printf_dec.o(.text) for _printf_int_dec
    _printf_e.o(.ARM.Collect$$_printf_percent$$00000004) refers (Weak) to printf1.o(x$fpl$printf1) for _printf_fp_dec
    _printf_lli.o(.ARM.Collect$$_printf_percent$$0000000D) refers (Special) to _printf_ll.o(.ARM.Collect$$_printf_percent$$00000007) for _printf_ll
    _printf_lli.o(.ARM.Collect$$_printf_percent$$0000000D) refers (Weak) to _printf_longlong_dec.o(.text) for _printf_longlong_dec
    _printf_lld.o(.ARM.Collect$$_printf_percent$$0000000E) refers (Special) to _printf_ll.o(.ARM.Collect$$_printf_percent$$00000007) for _printf_ll
    _printf_lld.o(.ARM.Collect$$_printf_percent$$0000000E) refers (Weak) to _printf_longlong_dec.o(.text) for _printf_longlong_dec
    _printf_llu.o(.ARM.Collect$$_printf_percent$$0000000F) refers (Special) to _printf_ll.o(.ARM.Collect$$_printf_percent$$00000007) for _printf_ll
    _printf_llu.o(.ARM.Collect$$_printf_percent$$0000000F) refers (Weak) to _printf_longlong_dec.o(.text) for _printf_longlong_dec
    _printf_lc.o(.ARM.Collect$$_printf_percent$$00000015) refers (Special) to _printf_l.o(.ARM.Collect$$_printf_percent$$00000012) for _printf_l
    _printf_lc.o(.ARM.Collect$$_printf_percent$$00000015) refers (Weak) to _printf_wchar.o(.text) for _printf_wchar
    _printf_ls.o(.ARM.Collect$$_printf_percent$$00000016) refers (Special) to _printf_l.o(.ARM.Collect$$_printf_percent$$00000012) for _printf_l
    _printf_ls.o(.ARM.Collect$$_printf_percent$$00000016) refers (Weak) to _printf_wchar.o(.text) for _printf_wstring
    _printf_llo.o(.ARM.Collect$$_printf_percent$$00000010) refers (Special) to _printf_ll.o(.ARM.Collect$$_printf_percent$$00000007) for _printf_ll
    _printf_llo.o(.ARM.Collect$$_printf_percent$$00000010) refers (Weak) to _printf_oct_int_ll.o(.text) for _printf_ll_oct
    _printf_llx.o(.ARM.Collect$$_printf_percent$$00000011) refers (Special) to _printf_ll.o(.ARM.Collect$$_printf_percent$$00000007) for _printf_ll
    _printf_llx.o(.ARM.Collect$$_printf_percent$$00000011) refers (Weak) to _printf_hex_int_ll_ptr.o(.text) for _printf_ll_hex
    strtod.o(.text) refers (Special) to lc_numeric_c.o(locale$$code) for _get_lc_numeric
    strtod.o(.text) refers to scanf1.o(x$fpl$scanf1) for _scanf_real
    strtod.o(.text) refers to _sgetc.o(.text) for _sgetc
    strtod.o(.text) refers to isspace.o(.text) for isspace
    strtol.o(.text) refers to rt_ctype_table.o(.text) for __rt_ctype_table
    strtol.o(.text) refers to _strtoul.o(.text) for _strtoul
    strtol.o(.text) refers to rt_errno_addr_intlibspace.o(.text) for __aeabi_errno_addr
    dcmpi.o(x$fpl$dcmpinf) refers (Special) to usenofp.o(x$fpl$usenofp) for __I$use$fp
    dnaninf.o(x$fpl$dnaninf) refers (Special) to usenofp.o(x$fpl$usenofp) for __I$use$fp
    dretinf.o(x$fpl$dretinf) refers (Special) to usenofp.o(x$fpl$usenofp) for __I$use$fp
    dsqrt_noumaal.o(x$fpl$dsqrt) refers (Special) to usenofp.o(x$fpl$usenofp) for __I$use$fp
    dsqrt_noumaal.o(x$fpl$dsqrt) refers to dnaninf.o(x$fpl$dnaninf) for __fpl_dnaninf
    fcmpi.o(x$fpl$fcmpinf) refers (Special) to usenofp.o(x$fpl$usenofp) for __I$use$fp
    fnaninf.o(x$fpl$fnaninf) refers (Special) to usenofp.o(x$fpl$usenofp) for __I$use$fp
    fretinf.o(x$fpl$fretinf) refers (Special) to usenofp.o(x$fpl$usenofp) for __I$use$fp
    scalbn.o(x$fpl$scalbn) refers (Special) to usenofp.o(x$fpl$usenofp) for __I$use$fp
    scalbn.o(x$fpl$scalbn) refers to dcheck1.o(x$fpl$dcheck1) for __fpl_dcheck_NaN1
    dunder.o(i.__mathlib_dbl_divzero) refers to ddiv.o(x$fpl$ddiv) for __aeabi_ddiv
    dunder.o(i.__mathlib_dbl_infnan) refers to scalbn.o(x$fpl$scalbn) for __ARM_scalbn
    dunder.o(i.__mathlib_dbl_infnan2) refers to daddsub_clz.o(x$fpl$dadd) for __aeabi_dadd
    dunder.o(i.__mathlib_dbl_invalid) refers to ddiv.o(x$fpl$ddiv) for __aeabi_ddiv
    dunder.o(i.__mathlib_dbl_overflow) refers to scalbn.o(x$fpl$scalbn) for __ARM_scalbn
    dunder.o(i.__mathlib_dbl_posinfnan) refers to dmul.o(x$fpl$dmul) for __aeabi_dmul
    dunder.o(i.__mathlib_dbl_underflow) refers to scalbn.o(x$fpl$scalbn) for __ARM_scalbn
    fpclassify.o(i.__ARM_fpclassify) refers (Special) to usenofp.o(x$fpl$usenofp) for __I$use$fp
    poly.o(i.__kernel_poly) refers (Special) to usenofp.o(x$fpl$usenofp) for __I$use$fp
    poly.o(i.__kernel_poly) refers to dmul.o(x$fpl$dmul) for __aeabi_dmul
    poly.o(i.__kernel_poly) refers to daddsub_clz.o(x$fpl$dadd) for __aeabi_dadd
    qnan.o(.constdata) refers (Special) to usenofp.o(x$fpl$usenofp) for __I$use$fp
    libspace.o(.text) refers to libspace.o(.bss) for __libspace_start
    __rtentry2.o(.ARM.Collect$$rtentry$$00000008) refers to boardinit2.o(.text) for _platform_post_stackheap_init
    __rtentry2.o(.ARM.Collect$$rtentry$$0000000A) refers to libinit.o(.ARM.Collect$$libinit$$00000000) for __rt_lib_init
    __rtentry2.o(.ARM.Collect$$rtentry$$0000000B) refers to boardinit3.o(.text) for _platform_post_lib_init
    __rtentry2.o(.ARM.Collect$$rtentry$$0000000D) refers to main.o(.text) for main
    __rtentry2.o(.ARM.Collect$$rtentry$$0000000D) refers to exit.o(.text) for exit
    __rtentry2.o(.ARM.exidx) refers to __rtentry2.o(.ARM.Collect$$rtentry$$00000001) for .ARM.Collect$$rtentry$$00000001
    __rtentry2.o(.ARM.exidx) refers to __rtentry2.o(.ARM.Collect$$rtentry$$00000008) for .ARM.Collect$$rtentry$$00000008
    __rtentry2.o(.ARM.exidx) refers to __rtentry2.o(.ARM.Collect$$rtentry$$0000000A) for .ARM.Collect$$rtentry$$0000000A
    __rtentry2.o(.ARM.exidx) refers to __rtentry2.o(.ARM.Collect$$rtentry$$0000000B) for .ARM.Collect$$rtentry$$0000000B
    __rtentry2.o(.ARM.exidx) refers to __rtentry2.o(.ARM.Collect$$rtentry$$0000000D) for .ARM.Collect$$rtentry$$0000000D
    __rtentry4.o(.ARM.Collect$$rtentry$$00000004) refers to sys_stackheap_outer.o(.text) for __user_setup_stackheap
    __rtentry4.o(.ARM.exidx) refers to __rtentry4.o(.ARM.Collect$$rtentry$$00000004) for .ARM.Collect$$rtentry$$00000004
    rt_ctype_table.o(.text) refers to rt_locale_intlibspace.o(.text) for __rt_locale
    rt_ctype_table.o(.text) refers to lc_ctype_c.o(locale$$code) for _get_lc_ctype
    rt_locale.o(.text) refers to rt_locale.o(.bss) for __rt_locale_data
    rt_locale_intlibspace.o(.text) refers to libspace.o(.bss) for __libspace_start
    isspace.o(.text) refers to rt_ctype_table.o(.text) for __rt_ctype_table
    _printf_fp_infnan.o(.text) refers (Weak) to _printf_pad.o(.text) for _printf_pre_padding
    _printf_fp_infnan.o(.text) refers (Weak) to _printf_pad.o(.text) for _printf_post_padding
    _printf_wchar.o(.text) refers (Weak) to _printf_wctomb.o(.text) for _printf_wctomb
    _strtoul.o(.text) refers to _chval.o(.text) for _chval
    _strtoul.o(.text) refers to rt_errno_addr_intlibspace.o(.text) for __aeabi_errno_addr
    bigflt0.o(.text) refers (Special) to usenofp.o(x$fpl$usenofp) for __I$use$fp
    bigflt0.o(.text) refers to btod.o(CL$$btod_emul) for _btod_emul
    bigflt0.o(.text) refers to btod.o(CL$$btod_ediv) for _btod_ediv
    bigflt0.o(.text) refers to bigflt0.o(.constdata) for .constdata
    bigflt0.o(.constdata) refers (Special) to usenofp.o(x$fpl$usenofp) for __I$use$fp
    btod.o(CL$$btod_d2e) refers (Special) to usenofp.o(x$fpl$usenofp) for __I$use$fp
    btod.o(CL$$btod_d2e) refers to btod.o(CL$$btod_d2e_norm_op1) for _d2e_norm_op1
    btod.o(CL$$btod_d2e_norm_op1) refers (Special) to usenofp.o(x$fpl$usenofp) for __I$use$fp
    btod.o(CL$$btod_d2e_norm_op1) refers to btod.o(CL$$btod_d2e_denorm_low) for _d2e_denorm_low
    btod.o(CL$$btod_d2e_denorm_low) refers (Special) to usenofp.o(x$fpl$usenofp) for __I$use$fp
    btod.o(CL$$btod_emul) refers (Special) to usenofp.o(x$fpl$usenofp) for __I$use$fp
    btod.o(CL$$btod_emul) refers to btod.o(CL$$btod_mult_common) for __btod_mult_common
    btod.o(CL$$btod_emul) refers to btod.o(CL$$btod_e2e) for _e2e
    btod.o(CL$$btod_ediv) refers (Special) to usenofp.o(x$fpl$usenofp) for __I$use$fp
    btod.o(CL$$btod_ediv) refers to btod.o(CL$$btod_div_common) for __btod_div_common
    btod.o(CL$$btod_ediv) refers to btod.o(CL$$btod_e2e) for _e2e
    btod.o(CL$$btod_emuld) refers (Special) to usenofp.o(x$fpl$usenofp) for __I$use$fp
    btod.o(CL$$btod_emuld) refers to btod.o(CL$$btod_mult_common) for __btod_mult_common
    btod.o(CL$$btod_emuld) refers to btod.o(CL$$btod_e2d) for _e2d
    btod.o(CL$$btod_edivd) refers (Special) to usenofp.o(x$fpl$usenofp) for __I$use$fp
    btod.o(CL$$btod_edivd) refers to btod.o(CL$$btod_div_common) for __btod_div_common
    btod.o(CL$$btod_edivd) refers to btod.o(CL$$btod_e2d) for _e2d
    btod.o(CL$$btod_e2e) refers (Special) to usenofp.o(x$fpl$usenofp) for __I$use$fp
    btod.o(CL$$btod_e2d) refers (Special) to usenofp.o(x$fpl$usenofp) for __I$use$fp
    btod.o(CL$$btod_e2d) refers to btod.o(CL$$btod_e2e) for _e2e
    btod.o(CL$$btod_mult_common) refers (Special) to usenofp.o(x$fpl$usenofp) for __I$use$fp
    btod.o(CL$$btod_div_common) refers (Special) to usenofp.o(x$fpl$usenofp) for __I$use$fp
    _wcrtomb.o(.text) refers to rt_ctype_table.o(.text) for __rt_ctype_table
    lc_numeric_c.o(locale$$data) refers (Special) to libinit2.o(.ARM.Collect$$libinit$$00000016) for __rt_lib_init_lc_numeric_2
    lc_numeric_c.o(locale$$code) refers (Special) to libinit2.o(.ARM.Collect$$libinit$$00000016) for __rt_lib_init_lc_numeric_2
    lc_numeric_c.o(locale$$code) refers to strcmpv7m.o(.text) for strcmp
    lc_numeric_c.o(locale$$code) refers to lc_numeric_c.o(locale$$data) for __lcnum_c_name
    dcheck1.o(x$fpl$dcheck1) refers (Special) to usenofp.o(x$fpl$usenofp) for __I$use$fp
    dcheck1.o(x$fpl$dcheck1) refers to retnan.o(x$fpl$retnan) for __fpl_return_NaN
    istatus.o(x$fpl$ieeestatus) refers (Special) to usenofp.o(x$fpl$usenofp) for __I$use$fp
    scanf1.o(x$fpl$scanf1) refers to scanf_fp.o(.text) for _scanf_really_real
    sys_stackheap_outer.o(.text) refers to libspace.o(.text) for __user_perproc_libspace
    sys_stackheap_outer.o(.text) refers to startup_stm32f10x_hd.o(.text) for __user_initial_stackheap
    scanf_fp.o(.text) refers (Special) to usenofp.o(x$fpl$usenofp) for __I$use$fp
    scanf_fp.o(.text) refers (Special) to lc_numeric_c.o(locale$$code) for _get_lc_numeric
    scanf_fp.o(.text) refers to rt_errno_addr_intlibspace.o(.text) for __aeabi_errno_addr
    scanf_fp.o(.text) refers to bigflt0.o(.text) for _btod_etento
    scanf_fp.o(.text) refers to btod.o(CL$$btod_emuld) for _btod_emuld
    scanf_fp.o(.text) refers to btod.o(CL$$btod_edivd) for _btod_edivd
    scanf_fp.o(.text) refers to rt_locale_intlibspace.o(.text) for __rt_locale
    scanf_fp.o(.text) refers to scanf2.o(x$fpl$scanf2) for _scanf_infnan
    scanf_fp.o(.text) refers to __printf_wp.o(i._is_digit) for _is_digit
    scanf_fp.o(.text) refers to narrow.o(i.__mathlib_narrow) for __mathlib_narrow
    scanf_fp.o(.text) refers to fpconst.o(c$$dinf) for __huge_val
    lc_ctype_c.o(locale$$data) refers (Special) to libinit2.o(.ARM.Collect$$libinit$$00000012) for __rt_lib_init_lc_ctype_2
    lc_ctype_c.o(locale$$code) refers (Special) to libinit2.o(.ARM.Collect$$libinit$$00000012) for __rt_lib_init_lc_ctype_2
    lc_ctype_c.o(locale$$code) refers to strcmpv7m.o(.text) for strcmp
    lc_ctype_c.o(locale$$code) refers to lc_ctype_c.o(locale$$data) for __lcctype_c_name
    exit.o(.text) refers to rtexit.o(.ARM.Collect$$rtexit$$00000000) for __rt_exit
    libinit.o(.ARM.Collect$$libinit$$00000000) refers (Special) to libinit2.o(.ARM.Collect$$libinit$$0000002E) for __rt_lib_init_alloca_1
    libinit.o(.ARM.Collect$$libinit$$00000000) refers (Special) to libinit2.o(.ARM.Collect$$libinit$$0000002C) for __rt_lib_init_argv_1
    libinit.o(.ARM.Collect$$libinit$$00000000) refers (Special) to libinit2.o(.ARM.Collect$$libinit$$0000001B) for __rt_lib_init_atexit_1
    libinit.o(.ARM.Collect$$libinit$$00000000) refers (Special) to libinit2.o(.ARM.Collect$$libinit$$00000021) for __rt_lib_init_clock_1
    libinit.o(.ARM.Collect$$libinit$$00000000) refers (Special) to libinit2.o(.ARM.Collect$$libinit$$00000032) for __rt_lib_init_cpp_1
    libinit.o(.ARM.Collect$$libinit$$00000000) refers (Special) to libinit2.o(.ARM.Collect$$libinit$$00000030) for __rt_lib_init_exceptions_1
    libinit.o(.ARM.Collect$$libinit$$00000000) refers (Special) to libinit2.o(.ARM.Collect$$libinit$$00000002) for __rt_lib_init_fp_1
    libinit.o(.ARM.Collect$$libinit$$00000000) refers (Special) to libinit2.o(.ARM.Collect$$libinit$$0000001F) for __rt_lib_init_fp_trap_1
    libinit.o(.ARM.Collect$$libinit$$00000000) refers (Special) to libinit2.o(.ARM.Collect$$libinit$$00000023) for __rt_lib_init_getenv_1
    libinit.o(.ARM.Collect$$libinit$$00000000) refers (Special) to libinit2.o(.ARM.Collect$$libinit$$0000000A) for __rt_lib_init_heap_1
    libinit.o(.ARM.Collect$$libinit$$00000000) refers (Special) to libinit2.o(.ARM.Collect$$libinit$$00000011) for __rt_lib_init_lc_collate_1
    libinit.o(.ARM.Collect$$libinit$$00000000) refers (Special) to libinit2.o(.ARM.Collect$$libinit$$00000013) for __rt_lib_init_lc_ctype_1
    libinit.o(.ARM.Collect$$libinit$$00000000) refers (Special) to libinit2.o(.ARM.Collect$$libinit$$00000015) for __rt_lib_init_lc_monetary_1
    libinit.o(.ARM.Collect$$libinit$$00000000) refers (Special) to libinit2.o(.ARM.Collect$$libinit$$00000017) for __rt_lib_init_lc_numeric_1
    libinit.o(.ARM.Collect$$libinit$$00000000) refers (Special) to libinit2.o(.ARM.Collect$$libinit$$00000019) for __rt_lib_init_lc_time_1
    libinit.o(.ARM.Collect$$libinit$$00000000) refers (Special) to libinit2.o(.ARM.Collect$$libinit$$00000004) for __rt_lib_init_preinit_1
    libinit.o(.ARM.Collect$$libinit$$00000000) refers (Special) to libinit2.o(.ARM.Collect$$libinit$$0000000E) for __rt_lib_init_rand_1
    libinit.o(.ARM.Collect$$libinit$$00000000) refers (Special) to libinit2.o(.ARM.Collect$$libinit$$00000033) for __rt_lib_init_return
    libinit.o(.ARM.Collect$$libinit$$00000000) refers (Special) to libinit2.o(.ARM.Collect$$libinit$$0000001D) for __rt_lib_init_signal_1
    libinit.o(.ARM.Collect$$libinit$$00000000) refers (Special) to libinit2.o(.ARM.Collect$$libinit$$00000025) for __rt_lib_init_stdio_1
    libinit.o(.ARM.Collect$$libinit$$00000000) refers (Special) to libinit2.o(.ARM.Collect$$libinit$$0000000C) for __rt_lib_init_user_alloc_1
    libinit2.o(.ARM.Collect$$libinit$$0000000F) refers (Weak) to rt_locale_intlibspace.o(.text) for __rt_locale
    libinit2.o(.ARM.Collect$$libinit$$00000010) refers to libinit2.o(.ARM.Collect$$libinit$$0000000F) for .ARM.Collect$$libinit$$0000000F
    libinit2.o(.ARM.Collect$$libinit$$00000012) refers to libinit2.o(.ARM.Collect$$libinit$$0000000F) for .ARM.Collect$$libinit$$0000000F
    libinit2.o(.ARM.Collect$$libinit$$00000012) refers (Weak) to lc_ctype_c.o(locale$$code) for _get_lc_ctype
    libinit2.o(.ARM.Collect$$libinit$$00000014) refers to libinit2.o(.ARM.Collect$$libinit$$0000000F) for .ARM.Collect$$libinit$$0000000F
    libinit2.o(.ARM.Collect$$libinit$$00000016) refers to libinit2.o(.ARM.Collect$$libinit$$0000000F) for .ARM.Collect$$libinit$$0000000F
    libinit2.o(.ARM.Collect$$libinit$$00000016) refers (Weak) to lc_numeric_c.o(locale$$code) for _get_lc_numeric
    libinit2.o(.ARM.Collect$$libinit$$00000018) refers to libinit2.o(.ARM.Collect$$libinit$$0000000F) for .ARM.Collect$$libinit$$0000000F
    libinit2.o(.ARM.Collect$$libinit$$00000026) refers to argv_veneer.o(.emb_text) for __ARM_argv_veneer
    libinit2.o(.ARM.Collect$$libinit$$00000027) refers to argv_veneer.o(.emb_text) for __ARM_argv_veneer
    retnan.o(x$fpl$retnan) refers (Special) to usenofp.o(x$fpl$usenofp) for __I$use$fp
    retnan.o(x$fpl$retnan) refers to trapv.o(x$fpl$trapveneer) for __fpl_cmpreturn
    rtexit.o(.ARM.Collect$$rtexit$$00000000) refers (Special) to rtexit2.o(.ARM.Collect$$rtexit$$00000004) for __rt_exit_exit
    rtexit.o(.ARM.Collect$$rtexit$$00000000) refers (Special) to rtexit2.o(.ARM.Collect$$rtexit$$00000003) for __rt_exit_ls
    rtexit.o(.ARM.Collect$$rtexit$$00000000) refers (Special) to rtexit2.o(.ARM.Collect$$rtexit$$00000002) for __rt_exit_prels_1
    rtexit.o(.ARM.exidx) refers (Special) to rtexit2.o(.ARM.Collect$$rtexit$$00000004) for __rt_exit_exit
    rtexit.o(.ARM.exidx) refers (Special) to rtexit2.o(.ARM.Collect$$rtexit$$00000003) for __rt_exit_ls
    rtexit.o(.ARM.exidx) refers (Special) to rtexit2.o(.ARM.Collect$$rtexit$$00000002) for __rt_exit_prels_1
    rtexit.o(.ARM.exidx) refers to rtexit.o(.ARM.Collect$$rtexit$$00000000) for .ARM.Collect$$rtexit$$00000000
    argv_veneer.o(.emb_text) refers to no_argv.o(.text) for __ARM_get_argv
    fpconst.o(c$$dinf) refers (Special) to usenofp.o(x$fpl$usenofp) for __I$use$fp
    fpconst.o(c$$dnan) refers (Special) to usenofp.o(x$fpl$usenofp) for __I$use$fp
    fpconst.o(c$$finf) refers (Special) to usenofp.o(x$fpl$usenofp) for __I$use$fp
    scanf2.o(x$fpl$scanf2) refers to scanf_hexfp.o(.text) for _scanf_really_hex_real
    scanf2.o(x$fpl$scanf2) refers to scanf_infnan.o(.text) for _scanf_really_infnan
    scanf2b.o(x$fpl$scanf2) refers to scanf_hexfp.o(.text) for _scanf_really_hex_real
    scanf2b.o(x$fpl$scanf2) refers to scanf_infnan.o(.text) for _scanf_really_infnan
    trapv.o(x$fpl$trapveneer) refers (Special) to usenofp.o(x$fpl$usenofp) for __I$use$fp
    narrow.o(i.__mathlib_narrow) refers (Special) to usenofp.o(x$fpl$usenofp) for __I$use$fp
    narrow.o(i.__mathlib_narrow) refers to narrow.o(i.__mathlib_tofloat) for __mathlib_tofloat
    narrow.o(i.__mathlib_tofloat) refers (Special) to usenofp.o(x$fpl$usenofp) for __I$use$fp
    narrow.o(i.__mathlib_tofloat) refers to frexp.o(i.frexp) for frexp
    narrow.o(i.__mathlib_tofloat) refers to deqf.o(x$fpl$deqf) for __aeabi_cdcmpeq
    narrow.o(i.__mathlib_tofloat) refers to d2f.o(x$fpl$d2f) for __aeabi_d2f
    narrow.o(i.__mathlib_tofloat) refers to _rserrno.o(.text) for __set_errno
    narrow.o(i.__mathlib_tofloat) refers to drleqf.o(x$fpl$drleqf) for __aeabi_cdrcmple
    narrow.o(i.__softfp___mathlib_tofloat) refers (Special) to usenofp.o(x$fpl$usenofp) for __I$use$fp
    narrow.o(i.__softfp___mathlib_tofloat) refers to narrow.o(i.__mathlib_tofloat) for __mathlib_tofloat
    rtexit2.o(.ARM.Collect$$rtexit$$00000003) refers to libshutdown.o(.ARM.Collect$$libshutdown$$00000000) for __rt_lib_shutdown
    rtexit2.o(.ARM.Collect$$rtexit$$00000004) refers to usart.o(.text) for _sys_exit
    rtexit2.o(.ARM.exidx) refers to rtexit2.o(.ARM.Collect$$rtexit$$00000001) for .ARM.Collect$$rtexit$$00000001
    rtexit2.o(.ARM.exidx) refers to rtexit2.o(.ARM.Collect$$rtexit$$00000003) for .ARM.Collect$$rtexit$$00000003
    rtexit2.o(.ARM.exidx) refers to rtexit2.o(.ARM.Collect$$rtexit$$00000004) for .ARM.Collect$$rtexit$$00000004
    scanf_hexfp.o(.text) refers to _chval.o(.text) for _chval
    scanf_hexfp.o(.text) refers to llshl.o(.text) for __aeabi_llsl
    scanf_hexfp.o(.text) refers to ldexp.o(i.__support_ldexp) for __support_ldexp
    scanf_hexfp.o(.text) refers to narrow.o(i.__mathlib_narrow) for __mathlib_narrow
    _get_argv_nomalloc.o(.text) refers (Special) to hrguard.o(.text) for __heap_region$guard
    _get_argv_nomalloc.o(.text) refers to defsig_rtmem_outer.o(.text) for __rt_SIGRTMEM
    _get_argv_nomalloc.o(.text) refers to sys_command.o(.text) for _sys_command_string
    frexp.o(i.__softfp_frexp) refers (Special) to usenofp.o(x$fpl$usenofp) for __I$use$fp
    frexp.o(i.__softfp_frexp) refers to scalbn.o(x$fpl$scalbn) for __ARM_scalbn
    frexp.o(i.frexp) refers (Special) to usenofp.o(x$fpl$usenofp) for __I$use$fp
    frexp.o(i.frexp) refers to scalbn.o(x$fpl$scalbn) for __ARM_scalbn
    sys_command.o(.text) refers (Special) to use_no_semi.o(.text) for __I$use$semihosting
    sys_command.o(.text) refers (Special) to indicate_semi.o(.text) for __semihosting_library_function
    defsig_rtmem_outer.o(.text) refers to defsig_rtmem_inner.o(.text) for __rt_SIGRTMEM_inner
    defsig_rtmem_outer.o(.text) refers to defsig_exit.o(.text) for __sig_exit
    defsig_rtmem_formal.o(.text) refers to rt_raise.o(.text) for __rt_raise
    libshutdown.o(.ARM.Collect$$libshutdown$$00000000) refers (Special) to libshutdown2.o(.ARM.Collect$$libshutdown$$00000006) for __rt_lib_shutdown_fp_trap_1
    libshutdown.o(.ARM.Collect$$libshutdown$$00000000) refers (Special) to libshutdown2.o(.ARM.Collect$$libshutdown$$0000000E) for __rt_lib_shutdown_heap_1
    libshutdown.o(.ARM.Collect$$libshutdown$$00000000) refers (Special) to libshutdown2.o(.ARM.Collect$$libshutdown$$0000000F) for __rt_lib_shutdown_return
    libshutdown.o(.ARM.Collect$$libshutdown$$00000000) refers (Special) to libshutdown2.o(.ARM.Collect$$libshutdown$$00000009) for __rt_lib_shutdown_signal_1
    libshutdown.o(.ARM.Collect$$libshutdown$$00000000) refers (Special) to libshutdown2.o(.ARM.Collect$$libshutdown$$00000003) for __rt_lib_shutdown_stdio_1
    libshutdown.o(.ARM.Collect$$libshutdown$$00000000) refers (Special) to libshutdown2.o(.ARM.Collect$$libshutdown$$0000000B) for __rt_lib_shutdown_user_alloc_1
    ldexp.o(i.__softfp_ldexp) refers (Special) to usenofp.o(x$fpl$usenofp) for __I$use$fp
    ldexp.o(i.__softfp_ldexp) refers to ldexp.o(i.ldexp) for ldexp
    ldexp.o(i.__support_ldexp) refers (Special) to usenofp.o(x$fpl$usenofp) for __I$use$fp
    ldexp.o(i.__support_ldexp) refers to ldexp.o(i.ldexp) for ldexp
    ldexp.o(i.ldexp) refers (Special) to usenofp.o(x$fpl$usenofp) for __I$use$fp
    ldexp.o(i.ldexp) refers to deqf.o(x$fpl$deqf) for __aeabi_cdcmpeq
    ldexp.o(i.ldexp) refers to scalbn.o(x$fpl$scalbn) for __ARM_scalbn
    ldexp.o(i.ldexp) refers to _rserrno.o(.text) for __set_errno
    ldexp.o(i.ldexp) refers to dunder.o(i.__mathlib_dbl_underflow) for __mathlib_dbl_underflow
    ldexp.o(i.ldexp) refers to dunder.o(i.__mathlib_dbl_overflow) for __mathlib_dbl_overflow
    ldexp_x.o(i.____softfp_ldexp$lsc) refers (Special) to usenofp.o(x$fpl$usenofp) for __I$use$fp
    ldexp_x.o(i.____softfp_ldexp$lsc) refers to ldexp_x.o(i.__ldexp$lsc) for __ldexp$lsc
    ldexp_x.o(i.____support_ldexp$lsc) refers (Special) to usenofp.o(x$fpl$usenofp) for __I$use$fp
    ldexp_x.o(i.____support_ldexp$lsc) refers to ldexp_x.o(i.__ldexp$lsc) for __ldexp$lsc
    ldexp_x.o(i.__ldexp$lsc) refers (Special) to usenofp.o(x$fpl$usenofp) for __I$use$fp
    ldexp_x.o(i.__ldexp$lsc) refers to deqf.o(x$fpl$deqf) for __aeabi_cdcmpeq
    ldexp_x.o(i.__ldexp$lsc) refers to scalbn.o(x$fpl$scalbn) for __ARM_scalbn
    ldexp_x.o(i.__ldexp$lsc) refers to _rserrno.o(.text) for __set_errno
    ldexp_x.o(i.__ldexp$lsc) refers to qnan.o(.constdata) for __mathlib_zero
    rt_raise.o(.text) refers to __raise.o(.text) for __raise
    rt_raise.o(.text) refers to usart.o(.text) for _sys_exit
    defsig_exit.o(.text) refers to usart.o(.text) for _sys_exit
    defsig_rtmem_inner.o(.text) refers to defsig_general.o(.text) for __default_signal_display
    __raise.o(.text) refers to defsig.o(CL$$defsig) for __default_signal_handler
    defsig_general.o(.text) refers to sys_wrch.o(.text) for _ttywrch
    sys_wrch.o(.text) refers (Special) to use_no_semi.o(.text) for __I$use$semihosting
    sys_wrch.o(.text) refers (Special) to indicate_semi.o(.text) for __semihosting_library_function
    defsig.o(CL$$defsig) refers to defsig_rtmem_inner.o(.text) for __rt_SIGRTMEM_inner
    defsig_abrt_inner.o(.text) refers to defsig_general.o(.text) for __default_signal_display
    defsig_fpe_inner.o(.text) refers to defsig_general.o(.text) for __default_signal_display
    defsig_rtred_inner.o(.text) refers to defsig_general.o(.text) for __default_signal_display
    defsig_stak_inner.o(.text) refers to defsig_general.o(.text) for __default_signal_display
    defsig_pvfn_inner.o(.text) refers to defsig_general.o(.text) for __default_signal_display
    defsig_cppl_inner.o(.text) refers to defsig_general.o(.text) for __default_signal_display
    defsig_segv_inner.o(.text) refers to defsig_general.o(.text) for __default_signal_display
    defsig_other.o(.text) refers to defsig_general.o(.text) for __default_signal_display


==============================================================================

Removing Unused input sections from the image.

    Removing stm32f10x_adc.o(.text), (1102 bytes).
    Removing stm32f10x_bkp.o(.text), (196 bytes).
    Removing stm32f10x_can.o(.text), (2544 bytes).
    Removing stm32f10x_cec.o(.text), (288 bytes).
    Removing stm32f10x_crc.o(.text), (72 bytes).
    Removing stm32f10x_dbgmcu.o(.text), (48 bytes).
    Removing stm32f10x_flash.o(.text), (1468 bytes).
    Removing stm32f10x_fsmc.o(.text), (1548 bytes).
    Removing stm32f10x_i2c.o(.text), (1028 bytes).
    Removing stm32f10x_iwdg.o(.text), (64 bytes).
    Removing stm32f10x_pwr.o(.text), (204 bytes).
    Removing stm32f10x_rtc.o(.text), (328 bytes).
    Removing stm32f10x_sdio.o(.text), (468 bytes).
    Removing stm32f10x_spi.o(.text), (780 bytes).
    Removing stm32f10x_wwdg.o(.text), (136 bytes).
    Removing sys.o(.text), (12 bytes).
    Removing core_cm3.o(.emb_text), (32 bytes).
    Removing adc.o(.text), (356 bytes).
    Removing timer.o(.data), (4 bytes).
    Removing xy_axis.o(.text), (4 bytes).
    Removing mic.o(.text), (4 bytes).

21 unused section(s) (total 10686 bytes) removed from the image.

==============================================================================

Image Symbol Table

    Local Symbols

    Symbol Name                              Value     Ov Type        Size  Object(Section)

    ../clib/angel/boardlib.s                 0x00000000   Number         0  boardinit1.o ABSOLUTE
    ../clib/angel/boardlib.s                 0x00000000   Number         0  boardinit2.o ABSOLUTE
    ../clib/angel/boardlib.s                 0x00000000   Number         0  boardshut.o ABSOLUTE
    ../clib/angel/boardlib.s                 0x00000000   Number         0  boardinit3.o ABSOLUTE
    ../clib/angel/dczerorl2.s                0x00000000   Number         0  __dczerorl2.o ABSOLUTE
    ../clib/angel/handlers.s                 0x00000000   Number         0  __scatter_zi.o ABSOLUTE
    ../clib/angel/kernel.s                   0x00000000   Number         0  __rtentry.o ABSOLUTE
    ../clib/angel/kernel.s                   0x00000000   Number         0  __rtentry2.o ABSOLUTE
    ../clib/angel/kernel.s                   0x00000000   Number         0  rtexit2.o ABSOLUTE
    ../clib/angel/kernel.s                   0x00000000   Number         0  rtexit.o ABSOLUTE
    ../clib/angel/kernel.s                   0x00000000   Number         0  __rtentry4.o ABSOLUTE
    ../clib/angel/rt.s                       0x00000000   Number         0  rt_locale.o ABSOLUTE
    ../clib/angel/rt.s                       0x00000000   Number         0  rt_locale_intlibspace.o ABSOLUTE
    ../clib/angel/rt.s                       0x00000000   Number         0  rt_errno_addr.o ABSOLUTE
    ../clib/angel/rt.s                       0x00000000   Number         0  rt_raise.o ABSOLUTE
    ../clib/angel/rt.s                       0x00000000   Number         0  rt_errno_addr_intlibspace.o ABSOLUTE
    ../clib/angel/rt.s                       0x00000000   Number         0  rt_ctype_table.o ABSOLUTE
    ../clib/angel/scatter.s                  0x00000000   Number         0  __scatter.o ABSOLUTE
    ../clib/angel/startup.s                  0x00000000   Number         0  __main.o ABSOLUTE
    ../clib/angel/sys.s                      0x00000000   Number         0  libspace.o ABSOLUTE
    ../clib/angel/sys.s                      0x00000000   Number         0  sys_stackheap_outer.o ABSOLUTE
    ../clib/angel/sys.s                      0x00000000   Number         0  use_no_semi.o ABSOLUTE
    ../clib/angel/sys.s                      0x00000000   Number         0  use_no_semi_2.o ABSOLUTE
    ../clib/angel/sys.s                      0x00000000   Number         0  indicate_semi.o ABSOLUTE
    ../clib/angel/sysapp.c                   0x00000000   Number         0  sys_command.o ABSOLUTE
    ../clib/angel/sysapp.c                   0x00000000   Number         0  sys_wrch.o ABSOLUTE
    ../clib/armsys.c                         0x00000000   Number         0  _get_argv_nomalloc.o ABSOLUTE
    ../clib/armsys.c                         0x00000000   Number         0  argv_veneer.o ABSOLUTE
    ../clib/armsys.c                         0x00000000   Number         0  argv_veneer.o ABSOLUTE
    ../clib/armsys.c                         0x00000000   Number         0  no_argv.o ABSOLUTE
    ../clib/bigflt.c                         0x00000000   Number         0  bigflt0.o ABSOLUTE
    ../clib/btod.s                           0x00000000   Number         0  btod.o ABSOLUTE
    ../clib/ctype.c                          0x00000000   Number         0  isspace.o ABSOLUTE
    ../clib/fenv.c                           0x00000000   Number         0  _rserrno.o ABSOLUTE
    ../clib/heapalloc.c                      0x00000000   Number         0  hrguard.o ABSOLUTE
    ../clib/heapaux.c                        0x00000000   Number         0  heapauxi.o ABSOLUTE
    ../clib/libinit.s                        0x00000000   Number         0  libshutdown.o ABSOLUTE
    ../clib/libinit.s                        0x00000000   Number         0  libinit.o ABSOLUTE
    ../clib/libinit.s                        0x00000000   Number         0  libinit2.o ABSOLUTE
    ../clib/libinit.s                        0x00000000   Number         0  libshutdown2.o ABSOLUTE
    ../clib/locale.c                         0x00000000   Number         0  _wcrtomb.o ABSOLUTE
    ../clib/locale.s                         0x00000000   Number         0  lc_numeric_c.o ABSOLUTE
    ../clib/locale.s                         0x00000000   Number         0  lc_ctype_c.o ABSOLUTE
    ../clib/longlong.s                       0x00000000   Number         0  llshl.o ABSOLUTE
    ../clib/longlong.s                       0x00000000   Number         0  lludiv10.o ABSOLUTE
    ../clib/memcpset.s                       0x00000000   Number         0  rt_memclr.o ABSOLUTE
    ../clib/memcpset.s                       0x00000000   Number         0  aeabi_memset.o ABSOLUTE
    ../clib/memcpset.s                       0x00000000   Number         0  rt_memclr_w.o ABSOLUTE
    ../clib/memcpset.s                       0x00000000   Number         0  strcmpv7m.o ABSOLUTE
    ../clib/memcpset.s                       0x00000000   Number         0  strncpy.o ABSOLUTE
    ../clib/memcpset.s                       0x00000000   Number         0  rt_memcpy_w.o ABSOLUTE
    ../clib/misc.s                           0x00000000   Number         0  printf_stubs.o ABSOLUTE
    ../clib/printf.c                         0x00000000   Number         0  _printf_str.o ABSOLUTE
    ../clib/printf.c                         0x00000000   Number         0  __printf.o ABSOLUTE
    ../clib/printf.c                         0x00000000   Number         0  noretval__2sprintf.o ABSOLUTE
    ../clib/printf.c                         0x00000000   Number         0  noretval__2printf.o ABSOLUTE
    ../clib/printf.c                         0x00000000   Number         0  __2sprintf.o ABSOLUTE
    ../clib/printf.c                         0x00000000   Number         0  __2printf.o ABSOLUTE
    ../clib/printf.c                         0x00000000   Number         0  c89vsprintf.o ABSOLUTE
    ../clib/printf.c                         0x00000000   Number         0  _printf_pad.o ABSOLUTE
    ../clib/printf.c                         0x00000000   Number         0  _printf_truncate.o ABSOLUTE
    ../clib/printf.c                         0x00000000   Number         0  _printf_intcommon.o ABSOLUTE
    ../clib/printf.c                         0x00000000   Number         0  _printf_charcount.o ABSOLUTE
    ../clib/printf.c                         0x00000000   Number         0  _printf_fp_dec.o ABSOLUTE
    ../clib/printf.c                         0x00000000   Number         0  _printf_char_common.o ABSOLUTE
    ../clib/printf.c                         0x00000000   Number         0  _sputc.o ABSOLUTE
    ../clib/printf.c                         0x00000000   Number         0  _printf_char.o ABSOLUTE
    ../clib/printf.c                         0x00000000   Number         0  _printf_char_file.o ABSOLUTE
    ../clib/printf.c                         0x00000000   Number         0  _printf_wctomb.o ABSOLUTE
    ../clib/printf.c                         0x00000000   Number         0  _printf_longlong_dec.o ABSOLUTE
    ../clib/printf.c                         0x00000000   Number         0  _printf_oct_ll.o ABSOLUTE
    ../clib/printf.c                         0x00000000   Number         0  _printf_oct_int.o ABSOLUTE
    ../clib/printf.c                         0x00000000   Number         0  _printf_oct_int_ll.o ABSOLUTE
    ../clib/printf.c                         0x00000000   Number         0  _printf_hex_ll.o ABSOLUTE
    ../clib/printf.c                         0x00000000   Number         0  _printf_hex_int.o ABSOLUTE
    ../clib/printf.c                         0x00000000   Number         0  _printf_hex_int_ll.o ABSOLUTE
    ../clib/printf.c                         0x00000000   Number         0  _printf_hex_ptr.o ABSOLUTE
    ../clib/printf.c                         0x00000000   Number         0  _printf_hex_int_ptr.o ABSOLUTE
    ../clib/printf.c                         0x00000000   Number         0  _printf_hex_ll_ptr.o ABSOLUTE
    ../clib/printf.c                         0x00000000   Number         0  _printf_hex_int_ll_ptr.o ABSOLUTE
    ../clib/printf.c                         0x00000000   Number         0  _printf_wchar.o ABSOLUTE
    ../clib/printf.c                         0x00000000   Number         0  __printf_nopercent.o ABSOLUTE
    ../clib/printf.c                         0x00000000   Number         0  _printf_fp_infnan.o ABSOLUTE
    ../clib/printf.c                         0x00000000   Number         0  __printf_flags_ss_wp.o ABSOLUTE
    ../clib/printf.c                         0x00000000   Number         0  __printf_ss_wp.o ABSOLUTE
    ../clib/printf.c                         0x00000000   Number         0  __printf_flags_wp.o ABSOLUTE
    ../clib/printf.c                         0x00000000   Number         0  __printf_wp.o ABSOLUTE
    ../clib/printf.c                         0x00000000   Number         0  __printf_flags_ss.o ABSOLUTE
    ../clib/printf.c                         0x00000000   Number         0  __printf_ss.o ABSOLUTE
    ../clib/printf.c                         0x00000000   Number         0  __printf_flags.o ABSOLUTE
    ../clib/printf.c                         0x00000000   Number         0  _printf_dec.o ABSOLUTE
    ../clib/printf_percent.s                 0x00000000   Number         0  _printf_llo.o ABSOLUTE
    ../clib/printf_percent.s                 0x00000000   Number         0  _printf_llx.o ABSOLUTE
    ../clib/printf_percent.s                 0x00000000   Number         0  _printf_lli.o ABSOLUTE
    ../clib/printf_percent.s                 0x00000000   Number         0  _printf_percent_end.o ABSOLUTE
    ../clib/printf_percent.s                 0x00000000   Number         0  _printf_a.o ABSOLUTE
    ../clib/printf_percent.s                 0x00000000   Number         0  _printf_percent.o ABSOLUTE
    ../clib/printf_percent.s                 0x00000000   Number         0  _printf_u.o ABSOLUTE
    ../clib/printf_percent.s                 0x00000000   Number         0  _printf_ls.o ABSOLUTE
    ../clib/printf_percent.s                 0x00000000   Number         0  _printf_lc.o ABSOLUTE
    ../clib/printf_percent.s                 0x00000000   Number         0  _printf_l.o ABSOLUTE
    ../clib/printf_percent.s                 0x00000000   Number         0  _printf_ll.o ABSOLUTE
    ../clib/printf_percent.s                 0x00000000   Number         0  _printf_c.o ABSOLUTE
    ../clib/printf_percent.s                 0x00000000   Number         0  _printf_d.o ABSOLUTE
    ../clib/printf_percent.s                 0x00000000   Number         0  _printf_i.o ABSOLUTE
    ../clib/printf_percent.s                 0x00000000   Number         0  _printf_f.o ABSOLUTE
    ../clib/printf_percent.s                 0x00000000   Number         0  _printf_n.o ABSOLUTE
    ../clib/printf_percent.s                 0x00000000   Number         0  _printf_e.o ABSOLUTE
    ../clib/printf_percent.s                 0x00000000   Number         0  _printf_o.o ABSOLUTE
    ../clib/printf_percent.s                 0x00000000   Number         0  _printf_p.o ABSOLUTE
    ../clib/printf_percent.s                 0x00000000   Number         0  _printf_g.o ABSOLUTE
    ../clib/printf_percent.s                 0x00000000   Number         0  _printf_llu.o ABSOLUTE
    ../clib/printf_percent.s                 0x00000000   Number         0  _printf_s.o ABSOLUTE
    ../clib/printf_percent.s                 0x00000000   Number         0  _printf_x.o ABSOLUTE
    ../clib/printf_percent.s                 0x00000000   Number         0  _printf_lld.o ABSOLUTE
    ../clib/scanf.c                          0x00000000   Number         0  strtod.o ABSOLUTE
    ../clib/scanf.c                          0x00000000   Number         0  strtol.o ABSOLUTE
    ../clib/scanf.c                          0x00000000   Number         0  atoi.o ABSOLUTE
    ../clib/scanf.c                          0x00000000   Number         0  scanf_hexfp.o ABSOLUTE
    ../clib/scanf.c                          0x00000000   Number         0  _strtoul.o ABSOLUTE
    ../clib/scanf.c                          0x00000000   Number         0  _chval.o ABSOLUTE
    ../clib/scanf.c                          0x00000000   Number         0  _sgetc.o ABSOLUTE
    ../clib/scanf.c                          0x00000000   Number         0  scanf_fp.o ABSOLUTE
    ../clib/scanf.c                          0x00000000   Number         0  scanf_infnan.o ABSOLUTE
    ../clib/signal.c                         0x00000000   Number         0  __raise.o ABSOLUTE
    ../clib/signal.c                         0x00000000   Number         0  defsig_exit.o ABSOLUTE
    ../clib/signal.c                         0x00000000   Number         0  defsig_rtmem_outer.o ABSOLUTE
    ../clib/signal.c                         0x00000000   Number         0  defsig_other.o ABSOLUTE
    ../clib/signal.c                         0x00000000   Number         0  defsig_segv_inner.o ABSOLUTE
    ../clib/signal.c                         0x00000000   Number         0  defsig_cppl_inner.o ABSOLUTE
    ../clib/signal.c                         0x00000000   Number         0  defsig_pvfn_inner.o ABSOLUTE
    ../clib/signal.c                         0x00000000   Number         0  defsig_stak_inner.o ABSOLUTE
    ../clib/signal.c                         0x00000000   Number         0  defsig_rtred_inner.o ABSOLUTE
    ../clib/signal.c                         0x00000000   Number         0  defsig_fpe_inner.o ABSOLUTE
    ../clib/signal.c                         0x00000000   Number         0  defsig_abrt_inner.o ABSOLUTE
    ../clib/signal.c                         0x00000000   Number         0  defsig_general.o ABSOLUTE
    ../clib/signal.c                         0x00000000   Number         0  defsig_rtmem_inner.o ABSOLUTE
    ../clib/signal.c                         0x00000000   Number         0  defsig_rtmem_formal.o ABSOLUTE
    ../clib/signal.s                         0x00000000   Number         0  defsig.o ABSOLUTE
    ../clib/stdio.c                          0x00000000   Number         0  ferror.o ABSOLUTE
    ../clib/stdio.c                          0x00000000   Number         0  ferror_locked.o ABSOLUTE
    ../clib/stdlib.c                         0x00000000   Number         0  exit.o ABSOLUTE
    ../clib/string.c                         0x00000000   Number         0  strcat.o ABSOLUTE
    ../clib/string.c                         0x00000000   Number         0  strlen.o ABSOLUTE
    ../clib/string.c                         0x00000000   Number         0  strcpy.o ABSOLUTE
    ../clib/string.c                         0x00000000   Number         0  strstr.o ABSOLUTE
    ../clib/string.c                         0x00000000   Number         0  strchr.o ABSOLUTE
    ../clib/string.c                         0x00000000   Number         0  memcmp.o ABSOLUTE
    ../fplib/d2f.s                           0x00000000   Number         0  d2f.o ABSOLUTE
    ../fplib/daddsub.s                       0x00000000   Number         0  daddsub_clz.o ABSOLUTE
    ../fplib/dcheck1.s                       0x00000000   Number         0  dcheck1.o ABSOLUTE
    ../fplib/dcmpi.s                         0x00000000   Number         0  dcmpi.o ABSOLUTE
    ../fplib/ddiv.s                          0x00000000   Number         0  ddiv.o ABSOLUTE
    ../fplib/deqf.s                          0x00000000   Number         0  deqf.o ABSOLUTE
    ../fplib/dfix.s                          0x00000000   Number         0  dfix.o ABSOLUTE
    ../fplib/dfixu.s                         0x00000000   Number         0  dfixu.o ABSOLUTE
    ../fplib/dflt.s                          0x00000000   Number         0  dflt_clz.o ABSOLUTE
    ../fplib/dleqf.s                         0x00000000   Number         0  dleqf.o ABSOLUTE
    ../fplib/dmul.s                          0x00000000   Number         0  dmul.o ABSOLUTE
    ../fplib/dnaninf.s                       0x00000000   Number         0  dnaninf.o ABSOLUTE
    ../fplib/dretinf.s                       0x00000000   Number         0  dretinf.o ABSOLUTE
    ../fplib/drleqf.s                        0x00000000   Number         0  drleqf.o ABSOLUTE
    ../fplib/dsqrt.s                         0x00000000   Number         0  dsqrt_noumaal.o ABSOLUTE
    ../fplib/f2d.s                           0x00000000   Number         0  f2d.o ABSOLUTE
    ../fplib/faddsub.s                       0x00000000   Number         0  faddsub_clz.o ABSOLUTE
    ../fplib/fcmpi.s                         0x00000000   Number         0  fcmpi.o ABSOLUTE
    ../fplib/fdiv.s                          0x00000000   Number         0  fdiv.o ABSOLUTE
    ../fplib/ffixu.s                         0x00000000   Number         0  ffixu.o ABSOLUTE
    ../fplib/fflt.s                          0x00000000   Number         0  fflt_clz.o ABSOLUTE
    ../fplib/fleqf.s                         0x00000000   Number         0  fleqf.o ABSOLUTE
    ../fplib/fmul.s                          0x00000000   Number         0  fmul.o ABSOLUTE
    ../fplib/fnaninf.s                       0x00000000   Number         0  fnaninf.o ABSOLUTE
    ../fplib/fpconst.s                       0x00000000   Number         0  fpconst.o ABSOLUTE
    ../fplib/fpinit.s                        0x00000000   Number         0  fpinit.o ABSOLUTE
    ../fplib/fretinf.s                       0x00000000   Number         0  fretinf.o ABSOLUTE
    ../fplib/frleqf.s                        0x00000000   Number         0  frleqf.o ABSOLUTE
    ../fplib/istatus.s                       0x00000000   Number         0  istatus.o ABSOLUTE
    ../fplib/printf1.s                       0x00000000   Number         0  printf1.o ABSOLUTE
    ../fplib/retnan.s                        0x00000000   Number         0  retnan.o ABSOLUTE
    ../fplib/scalbn.s                        0x00000000   Number         0  scalbn.o ABSOLUTE
    ../fplib/scanf1.s                        0x00000000   Number         0  scanf1.o ABSOLUTE
    ../fplib/scanf2.s                        0x00000000   Number         0  scanf2.o ABSOLUTE
    ../fplib/scanf2a.s                       0x00000000   Number         0  scanf2a.o ABSOLUTE
    ../fplib/scanf2b.s                       0x00000000   Number         0  scanf2b.o ABSOLUTE
    ../fplib/trapv.s                         0x00000000   Number         0  trapv.o ABSOLUTE
    ../fplib/usenofp.s                       0x00000000   Number         0  usenofp.o ABSOLUTE
    ../mathlib/atof.c                        0x00000000   Number         0  atof.o ABSOLUTE
    ../mathlib/dunder.c                      0x00000000   Number         0  dunder.o ABSOLUTE
    ../mathlib/fpclassify.c                  0x00000000   Number         0  fpclassify.o ABSOLUTE
    ../mathlib/frexp.c                       0x00000000   Number         0  frexp.o ABSOLUTE
    ../mathlib/ldexp.c                       0x00000000   Number         0  ldexp_x.o ABSOLUTE
    ../mathlib/ldexp.c                       0x00000000   Number         0  ldexp.o ABSOLUTE
    ../mathlib/narrow.c                      0x00000000   Number         0  narrow.o ABSOLUTE
    ../mathlib/poly.c                        0x00000000   Number         0  poly.o ABSOLUTE
    ../mathlib/pow.c                         0x00000000   Number         0  pow_x.o ABSOLUTE
    ../mathlib/pow.c                         0x00000000   Number         0  pow.o ABSOLUTE
    ../mathlib/qnan.c                        0x00000000   Number         0  qnan.o ABSOLUTE
    ../mathlib/sqrt.c                        0x00000000   Number         0  sqrt.o ABSOLUTE
    ../mathlib/sqrt.c                        0x00000000   Number         0  sqrt_x.o ABSOLUTE
    ..\CORE\core_cm3.c                       0x00000000   Number         0  core_cm3.o ABSOLUTE
    ..\CORE\startup_stm32f10x_hd.s           0x00000000   Number         0  startup_stm32f10x_hd.o ABSOLUTE
    ..\EACT\CRC.c                            0x00000000   Number         0  crc.o ABSOLUTE
    ..\EACT\XY_axis.c                        0x00000000   Number         0  xy_axis.o ABSOLUTE
    ..\EACT\X_axis.c                         0x00000000   Number         0  x_axis.o ABSOLUTE
    ..\EACT\Y_axis.c                         0x00000000   Number         0  y_axis.o ABSOLUTE
    ..\EACT\modbus.c                         0x00000000   Number         0  modbus.o ABSOLUTE
    ..\STM32F10x_FWLib\src\misc.c            0x00000000   Number         0  misc.o ABSOLUTE
    ..\STM32F10x_FWLib\src\stm32f10x_adc.c   0x00000000   Number         0  stm32f10x_adc.o ABSOLUTE
    ..\STM32F10x_FWLib\src\stm32f10x_bkp.c   0x00000000   Number         0  stm32f10x_bkp.o ABSOLUTE
    ..\STM32F10x_FWLib\src\stm32f10x_can.c   0x00000000   Number         0  stm32f10x_can.o ABSOLUTE
    ..\STM32F10x_FWLib\src\stm32f10x_cec.c   0x00000000   Number         0  stm32f10x_cec.o ABSOLUTE
    ..\STM32F10x_FWLib\src\stm32f10x_crc.c   0x00000000   Number         0  stm32f10x_crc.o ABSOLUTE
    ..\STM32F10x_FWLib\src\stm32f10x_dac.c   0x00000000   Number         0  stm32f10x_dac.o ABSOLUTE
    ..\STM32F10x_FWLib\src\stm32f10x_dbgmcu.c 0x00000000   Number         0  stm32f10x_dbgmcu.o ABSOLUTE
    ..\STM32F10x_FWLib\src\stm32f10x_dma.c   0x00000000   Number         0  stm32f10x_dma.o ABSOLUTE
    ..\STM32F10x_FWLib\src\stm32f10x_exti.c  0x00000000   Number         0  stm32f10x_exti.o ABSOLUTE
    ..\STM32F10x_FWLib\src\stm32f10x_flash.c 0x00000000   Number         0  stm32f10x_flash.o ABSOLUTE
    ..\STM32F10x_FWLib\src\stm32f10x_fsmc.c  0x00000000   Number         0  stm32f10x_fsmc.o ABSOLUTE
    ..\STM32F10x_FWLib\src\stm32f10x_gpio.c  0x00000000   Number         0  stm32f10x_gpio.o ABSOLUTE
    ..\STM32F10x_FWLib\src\stm32f10x_i2c.c   0x00000000   Number         0  stm32f10x_i2c.o ABSOLUTE
    ..\STM32F10x_FWLib\src\stm32f10x_iwdg.c  0x00000000   Number         0  stm32f10x_iwdg.o ABSOLUTE
    ..\STM32F10x_FWLib\src\stm32f10x_pwr.c   0x00000000   Number         0  stm32f10x_pwr.o ABSOLUTE
    ..\STM32F10x_FWLib\src\stm32f10x_rcc.c   0x00000000   Number         0  stm32f10x_rcc.o ABSOLUTE
    ..\STM32F10x_FWLib\src\stm32f10x_rtc.c   0x00000000   Number         0  stm32f10x_rtc.o ABSOLUTE
    ..\STM32F10x_FWLib\src\stm32f10x_sdio.c  0x00000000   Number         0  stm32f10x_sdio.o ABSOLUTE
    ..\STM32F10x_FWLib\src\stm32f10x_spi.c   0x00000000   Number         0  stm32f10x_spi.o ABSOLUTE
    ..\STM32F10x_FWLib\src\stm32f10x_tim.c   0x00000000   Number         0  stm32f10x_tim.o ABSOLUTE
    ..\STM32F10x_FWLib\src\stm32f10x_usart.c 0x00000000   Number         0  stm32f10x_usart.o ABSOLUTE
    ..\STM32F10x_FWLib\src\stm32f10x_wwdg.c  0x00000000   Number         0  stm32f10x_wwdg.o ABSOLUTE
    ..\SYSTEM\delay\delay.c                  0x00000000   Number         0  delay.o ABSOLUTE
    ..\SYSTEM\sys\sys.c                      0x00000000   Number         0  sys.o ABSOLUTE
    ..\USER\APP\Barcode.c                    0x00000000   Number         0  barcode.o ABSOLUTE
    ..\USER\APP\Base_Config.c                0x00000000   Number         0  base_config.o ABSOLUTE
    ..\USER\APP\Block_Check.c                0x00000000   Number         0  block_check.o ABSOLUTE
    ..\USER\APP\Dot.c                        0x00000000   Number         0  dot.o ABSOLUTE
    ..\USER\APP\ETH_Config.c                 0x00000000   Number         0  eth_config.o ABSOLUTE
    ..\USER\APP\Hold_data.c                  0x00000000   Number         0  hold_data.o ABSOLUTE
    ..\USER\APP\List_test.c                  0x00000000   Number         0  list_test.o ABSOLUTE
    ..\USER\APP\Sample_Notice.c              0x00000000   Number         0  sample_notice.o ABSOLUTE
    ..\USER\APP\Test_Config.c                0x00000000   Number         0  test_config.o ABSOLUTE
    ..\USER\APP\debug.c                      0x00000000   Number         0  debug.o ABSOLUTE
    ..\USER\APP\menu.c                       0x00000000   Number         0  menu.o ABSOLUTE
    ..\USER\APP\motor.c                      0x00000000   Number         0  motor.o ABSOLUTE
    ..\USER\APP\other.c                      0x00000000   Number         0  other.o ABSOLUTE
    ..\USER\APP\reg_config.c                 0x00000000   Number         0  reg_config.o ABSOLUTE
    ..\USER\APP\usb_move.c                   0x00000000   Number         0  usb_move.o ABSOLUTE
    ..\USER\FCT\Hall.c                       0x00000000   Number         0  hall.o ABSOLUTE
    ..\USER\FCT\ID.c                         0x00000000   Number         0  id.o ABSOLUTE
    ..\USER\FCT\LDO.c                        0x00000000   Number         0  ldo.o ABSOLUTE
    ..\USER\FCT\Leakage_I.c                  0x00000000   Number         0  leakage_i.o ABSOLUTE
    ..\USER\FCT\MIC.c                        0x00000000   Number         0  mic.o ABSOLUTE
    ..\USER\FCT\Switch.c                     0x00000000   Number         0  switch.o ABSOLUTE
    ..\USER\FCT\led.c                        0x00000000   Number         0  led.o ABSOLUTE
    ..\USER\HARDWARE\24cxx.c                 0x00000000   Number         0  24cxx.o ABSOLUTE
    ..\USER\HARDWARE\AD5933.c                0x00000000   Number         0  ad5933.o ABSOLUTE
    ..\USER\HARDWARE\ADC.c                   0x00000000   Number         0  adc.o ABSOLUTE
    ..\USER\HARDWARE\Analog_Switch.c         0x00000000   Number         0  analog_switch.o ABSOLUTE
    ..\USER\HARDWARE\DAC.c                   0x00000000   Number         0  dac.o ABSOLUTE
    ..\USER\HARDWARE\Fre.c                   0x00000000   Number         0  fre.o ABSOLUTE
    ..\USER\HARDWARE\LCD3033.c               0x00000000   Number         0  lcd3033.o ABSOLUTE
    ..\USER\HARDWARE\Sup_Fun.c               0x00000000   Number         0  sup_fun.o ABSOLUTE
    ..\USER\HARDWARE\Timer.c                 0x00000000   Number         0  timer.o ABSOLUTE
    ..\USER\HARDWARE\ad7176.c                0x00000000   Number         0  ad7176.o ABSOLUTE
    ..\USER\HARDWARE\global.c                0x00000000   Number         0  global.o ABSOLUTE
    ..\USER\ICT\KOhm.c                       0x00000000   Number         0  kohm.o ABSOLUTE
    ..\USER\ICT\diode.c                      0x00000000   Number         0  diode.o ABSOLUTE
    ..\USER\ICT\mR.c                         0x00000000   Number         0  mr.o ABSOLUTE
    ..\USER\ICT\open.c                       0x00000000   Number         0  open.o ABSOLUTE
    ..\USER\ICT\os.c                         0x00000000   Number         0  os.o ABSOLUTE
    ..\USER\ICT\os_study.c                   0x00000000   Number         0  os_study.o ABSOLUTE
    ..\USER\ICT\pF.c                         0x00000000   Number         0  pf.o ABSOLUTE
    ..\USER\ICT\short.c                      0x00000000   Number         0  short.o ABSOLUTE
    ..\USER\ICT\uF.c                         0x00000000   Number         0  uf.o ABSOLUTE
    ..\USER\PROTOCOL\NET_iic.c               0x00000000   Number         0  net_iic.o ABSOLUTE
    ..\USER\PROTOCOL\myiic.c                 0x00000000   Number         0  myiic.o ABSOLUTE
    ..\USER\PROTOCOL\uart4.c                 0x00000000   Number         0  uart4.o ABSOLUTE
    ..\USER\PROTOCOL\uart5.c                 0x00000000   Number         0  uart5.o ABSOLUTE
    ..\USER\PROTOCOL\usart.c                 0x00000000   Number         0  usart.o ABSOLUTE
    ..\USER\PROTOCOL\usart1.c                0x00000000   Number         0  usart1.o ABSOLUTE
    ..\USER\PROTOCOL\usart2.c                0x00000000   Number         0  usart2.o ABSOLUTE
    ..\USER\PROTOCOL\usart3.c                0x00000000   Number         0  usart3.o ABSOLUTE
    ..\USER\RF\RF.c                          0x00000000   Number         0  rf.o ABSOLUTE
    ..\USER\RF\RF_ID.c                       0x00000000   Number         0  rf_id.o ABSOLUTE
    ..\USER\RF\SuBUS.c                       0x00000000   Number         0  subus.o ABSOLUTE
    ..\USER\USMART\usmart.c                  0x00000000   Number         0  usmart.o ABSOLUTE
    ..\USER\USMART\usmart_config.c           0x00000000   Number         0  usmart_config.o ABSOLUTE
    ..\USER\USMART\usmart_str.c              0x00000000   Number         0  usmart_str.o ABSOLUTE
    ..\USER\Upload\JDT.c                     0x00000000   Number         0  jdt.o ABSOLUTE
    ..\USER\Upload\WTB.c                     0x00000000   Number         0  wtb.o ABSOLUTE
    ..\USER\Upload\ZDT.c                     0x00000000   Number         0  zdt.o ABSOLUTE
    ..\USER\Upload\cmd.c                     0x00000000   Number         0  cmd.o ABSOLUTE
    ..\USER\Upload\data.c                    0x00000000   Number         0  data.o ABSOLUTE
    ..\USER\main.c                           0x00000000   Number         0  main.o ABSOLUTE
    ..\USER\stm32f10x_it.c                   0x00000000   Number         0  stm32f10x_it.o ABSOLUTE
    ..\USER\system_stm32f10x.c               0x00000000   Number         0  system_stm32f10x.o ABSOLUTE
    ..\\CORE\\core_cm3.c                     0x00000000   Number         0  core_cm3.o ABSOLUTE
    dc.s                                     0x00000000   Number         0  dc.o ABSOLUTE
    RESET                                    0x08000000   Section      304  startup_stm32f10x_hd.o(RESET)
    !!!main                                  0x08000130   Section        8  __main.o(!!!main)
    !!!scatter                               0x08000138   Section       52  __scatter.o(!!!scatter)
    !!dczerorl2                              0x0800016c   Section       90  __dczerorl2.o(!!dczerorl2)
    !!handler_zi                             0x080001c8   Section       28  __scatter_zi.o(!!handler_zi)
    .ARM.Collect$$_printf_percent$$00000000  0x080001e4   Section        0  _printf_percent.o(.ARM.Collect$$_printf_percent$$00000000)
    .ARM.Collect$$_printf_percent$$00000001  0x080001e4   Section        6  _printf_n.o(.ARM.Collect$$_printf_percent$$00000001)
    .ARM.Collect$$_printf_percent$$00000002  0x080001ea   Section        6  _printf_p.o(.ARM.Collect$$_printf_percent$$00000002)
    .ARM.Collect$$_printf_percent$$00000003  0x080001f0   Section        6  _printf_f.o(.ARM.Collect$$_printf_percent$$00000003)
    .ARM.Collect$$_printf_percent$$00000004  0x080001f6   Section        6  _printf_e.o(.ARM.Collect$$_printf_percent$$00000004)
    .ARM.Collect$$_printf_percent$$00000005  0x080001fc   Section        6  _printf_g.o(.ARM.Collect$$_printf_percent$$00000005)
    .ARM.Collect$$_printf_percent$$00000006  0x08000202   Section        6  _printf_a.o(.ARM.Collect$$_printf_percent$$00000006)
    .ARM.Collect$$_printf_percent$$00000007  0x08000208   Section       10  _printf_ll.o(.ARM.Collect$$_printf_percent$$00000007)
    .ARM.Collect$$_printf_percent$$00000008  0x08000212   Section        6  _printf_i.o(.ARM.Collect$$_printf_percent$$00000008)
    .ARM.Collect$$_printf_percent$$00000009  0x08000218   Section        6  _printf_d.o(.ARM.Collect$$_printf_percent$$00000009)
    .ARM.Collect$$_printf_percent$$0000000A  0x0800021e   Section        6  _printf_u.o(.ARM.Collect$$_printf_percent$$0000000A)
    .ARM.Collect$$_printf_percent$$0000000B  0x08000224   Section        6  _printf_o.o(.ARM.Collect$$_printf_percent$$0000000B)
    .ARM.Collect$$_printf_percent$$0000000C  0x0800022a   Section        6  _printf_x.o(.ARM.Collect$$_printf_percent$$0000000C)
    .ARM.Collect$$_printf_percent$$0000000D  0x08000230   Section        6  _printf_lli.o(.ARM.Collect$$_printf_percent$$0000000D)
    .ARM.Collect$$_printf_percent$$0000000E  0x08000236   Section        6  _printf_lld.o(.ARM.Collect$$_printf_percent$$0000000E)
    .ARM.Collect$$_printf_percent$$0000000F  0x0800023c   Section        6  _printf_llu.o(.ARM.Collect$$_printf_percent$$0000000F)
    .ARM.Collect$$_printf_percent$$00000010  0x08000242   Section        6  _printf_llo.o(.ARM.Collect$$_printf_percent$$00000010)
    .ARM.Collect$$_printf_percent$$00000011  0x08000248   Section        6  _printf_llx.o(.ARM.Collect$$_printf_percent$$00000011)
    .ARM.Collect$$_printf_percent$$00000012  0x0800024e   Section       10  _printf_l.o(.ARM.Collect$$_printf_percent$$00000012)
    .ARM.Collect$$_printf_percent$$00000013  0x08000258   Section        6  _printf_c.o(.ARM.Collect$$_printf_percent$$00000013)
    .ARM.Collect$$_printf_percent$$00000014  0x0800025e   Section        6  _printf_s.o(.ARM.Collect$$_printf_percent$$00000014)
    .ARM.Collect$$_printf_percent$$00000015  0x08000264   Section        6  _printf_lc.o(.ARM.Collect$$_printf_percent$$00000015)
    .ARM.Collect$$_printf_percent$$00000016  0x0800026a   Section        6  _printf_ls.o(.ARM.Collect$$_printf_percent$$00000016)
    .ARM.Collect$$_printf_percent$$00000017  0x08000270   Section        4  _printf_percent_end.o(.ARM.Collect$$_printf_percent$$00000017)
    .ARM.Collect$$libinit$$00000000          0x08000274   Section        2  libinit.o(.ARM.Collect$$libinit$$00000000)
    .ARM.Collect$$libinit$$00000002          0x08000276   Section        0  libinit2.o(.ARM.Collect$$libinit$$00000002)
    .ARM.Collect$$libinit$$00000004          0x08000276   Section        0  libinit2.o(.ARM.Collect$$libinit$$00000004)
    .ARM.Collect$$libinit$$0000000A          0x08000276   Section        0  libinit2.o(.ARM.Collect$$libinit$$0000000A)
    .ARM.Collect$$libinit$$0000000C          0x08000276   Section        0  libinit2.o(.ARM.Collect$$libinit$$0000000C)
    .ARM.Collect$$libinit$$0000000E          0x08000276   Section        0  libinit2.o(.ARM.Collect$$libinit$$0000000E)
    .ARM.Collect$$libinit$$0000000F          0x08000276   Section        6  libinit2.o(.ARM.Collect$$libinit$$0000000F)
    .ARM.Collect$$libinit$$00000011          0x0800027c   Section        0  libinit2.o(.ARM.Collect$$libinit$$00000011)
    .ARM.Collect$$libinit$$00000012          0x0800027c   Section       12  libinit2.o(.ARM.Collect$$libinit$$00000012)
    .ARM.Collect$$libinit$$00000013          0x08000288   Section        0  libinit2.o(.ARM.Collect$$libinit$$00000013)
    .ARM.Collect$$libinit$$00000015          0x08000288   Section        0  libinit2.o(.ARM.Collect$$libinit$$00000015)
    .ARM.Collect$$libinit$$00000016          0x08000288   Section       10  libinit2.o(.ARM.Collect$$libinit$$00000016)
    .ARM.Collect$$libinit$$00000017          0x08000292   Section        0  libinit2.o(.ARM.Collect$$libinit$$00000017)
    .ARM.Collect$$libinit$$00000019          0x08000292   Section        0  libinit2.o(.ARM.Collect$$libinit$$00000019)
    .ARM.Collect$$libinit$$0000001B          0x08000292   Section        0  libinit2.o(.ARM.Collect$$libinit$$0000001B)
    .ARM.Collect$$libinit$$0000001D          0x08000292   Section        0  libinit2.o(.ARM.Collect$$libinit$$0000001D)
    .ARM.Collect$$libinit$$0000001F          0x08000292   Section        0  libinit2.o(.ARM.Collect$$libinit$$0000001F)
    .ARM.Collect$$libinit$$00000021          0x08000292   Section        0  libinit2.o(.ARM.Collect$$libinit$$00000021)
    .ARM.Collect$$libinit$$00000023          0x08000292   Section        0  libinit2.o(.ARM.Collect$$libinit$$00000023)
    .ARM.Collect$$libinit$$00000025          0x08000292   Section        0  libinit2.o(.ARM.Collect$$libinit$$00000025)
    .ARM.Collect$$libinit$$0000002C          0x08000292   Section        0  libinit2.o(.ARM.Collect$$libinit$$0000002C)
    .ARM.Collect$$libinit$$0000002E          0x08000292   Section        0  libinit2.o(.ARM.Collect$$libinit$$0000002E)
    .ARM.Collect$$libinit$$00000030          0x08000292   Section        0  libinit2.o(.ARM.Collect$$libinit$$00000030)
    .ARM.Collect$$libinit$$00000032          0x08000292   Section        0  libinit2.o(.ARM.Collect$$libinit$$00000032)
    .ARM.Collect$$libinit$$00000033          0x08000292   Section        2  libinit2.o(.ARM.Collect$$libinit$$00000033)
    .ARM.Collect$$libshutdown$$00000000      0x08000294   Section        2  libshutdown.o(.ARM.Collect$$libshutdown$$00000000)
    .ARM.Collect$$libshutdown$$00000003      0x08000296   Section        0  libshutdown2.o(.ARM.Collect$$libshutdown$$00000003)
    .ARM.Collect$$libshutdown$$00000006      0x08000296   Section        0  libshutdown2.o(.ARM.Collect$$libshutdown$$00000006)
    .ARM.Collect$$libshutdown$$00000009      0x08000296   Section        0  libshutdown2.o(.ARM.Collect$$libshutdown$$00000009)
    .ARM.Collect$$libshutdown$$0000000B      0x08000296   Section        0  libshutdown2.o(.ARM.Collect$$libshutdown$$0000000B)
    .ARM.Collect$$libshutdown$$0000000E      0x08000296   Section        0  libshutdown2.o(.ARM.Collect$$libshutdown$$0000000E)
    .ARM.Collect$$libshutdown$$0000000F      0x08000296   Section        2  libshutdown2.o(.ARM.Collect$$libshutdown$$0000000F)
    .ARM.Collect$$rtentry$$00000000          0x08000298   Section        0  __rtentry.o(.ARM.Collect$$rtentry$$00000000)
    .ARM.Collect$$rtentry$$00000002          0x08000298   Section        0  __rtentry2.o(.ARM.Collect$$rtentry$$00000002)
    .ARM.Collect$$rtentry$$00000004          0x08000298   Section        6  __rtentry4.o(.ARM.Collect$$rtentry$$00000004)
    .ARM.Collect$$rtentry$$00000009          0x0800029e   Section        0  __rtentry2.o(.ARM.Collect$$rtentry$$00000009)
    .ARM.Collect$$rtentry$$0000000A          0x0800029e   Section        4  __rtentry2.o(.ARM.Collect$$rtentry$$0000000A)
    .ARM.Collect$$rtentry$$0000000C          0x080002a2   Section        0  __rtentry2.o(.ARM.Collect$$rtentry$$0000000C)
    .ARM.Collect$$rtentry$$0000000D          0x080002a2   Section        8  __rtentry2.o(.ARM.Collect$$rtentry$$0000000D)
    .ARM.Collect$$rtexit$$00000000           0x080002aa   Section        2  rtexit.o(.ARM.Collect$$rtexit$$00000000)
    .ARM.Collect$$rtexit$$00000002           0x080002ac   Section        0  rtexit2.o(.ARM.Collect$$rtexit$$00000002)
    .ARM.Collect$$rtexit$$00000003           0x080002ac   Section        4  rtexit2.o(.ARM.Collect$$rtexit$$00000003)
    .ARM.Collect$$rtexit$$00000004           0x080002b0   Section        6  rtexit2.o(.ARM.Collect$$rtexit$$00000004)
    .text                                    0x080002b8   Section        0  misc.o(.text)
    .text                                    0x08000394   Section        0  stm32f10x_dac.o(.text)
    .text                                    0x08000520   Section        0  stm32f10x_dma.o(.text)
    .text                                    0x08000774   Section        0  stm32f10x_exti.o(.text)
    .text                                    0x08000890   Section        0  stm32f10x_gpio.o(.text)
    .text                                    0x08000bec   Section        0  stm32f10x_rcc.o(.text)
    .text                                    0x08000f90   Section        0  stm32f10x_tim.o(.text)
    TI4_Config                               0x08001437   Thumb Code   130  stm32f10x_tim.o(.text)
    TI3_Config                               0x080014cb   Thumb Code   122  stm32f10x_tim.o(.text)
    TI2_Config                               0x0800155f   Thumb Code   130  stm32f10x_tim.o(.text)
    TI1_Config                               0x080015f3   Thumb Code   108  stm32f10x_tim.o(.text)
    .text                                    0x08001dac   Section        0  stm32f10x_usart.o(.text)
    .text                                    0x080021b4   Section        0  delay.o(.text)
    .text                                    0x08002288   Section        0  usmart.o(.text)
    .text                                    0x08002d64   Section        0  usmart_config.o(.text)
    .text                                    0x08002dac   Section        0  usmart_str.o(.text)
    .text                                    0x080032d4   Section       64  startup_stm32f10x_hd.o(.text)
    .text                                    0x08003314   Section        0  dac.o(.text)
    .text                                    0x0800363c   Section        0  global.o(.text)
    .text                                    0x08003a14   Section        0  24cxx.o(.text)
    .text                                    0x08003c10   Section        0  sup_fun.o(.text)
    Drive_Valve                              0x08003f89   Thumb Code    74  sup_fun.o(.text)
    .text                                    0x08004778   Section        0  ad7176.o(.text)
    AD7176_Write_Data                        0x0800477f   Thumb Code   142  ad7176.o(.text)
    AD7176_Read_Data                         0x0800480d   Thumb Code   134  ad7176.o(.text)
    AD7176_Configure                         0x08004893   Thumb Code   130  ad7176.o(.text)
    .text                                    0x08004cc0   Section        0  analog_switch.o(.text)
    .text                                    0x080051d8   Section        0  lcd3033.o(.text)
    .text                                    0x0800562c   Section        0  ad5933.o(.text)
    Init_Mini_CAP_Test_GPIO                  0x0800562d   Thumb Code    38  ad5933.o(.text)
    AD5933_write                             0x080058e3   Thumb Code    56  ad5933.o(.text)
    AD5933_Create_Block_Command              0x0800591b   Thumb Code    46  ad5933.o(.text)
    AD5933_read                              0x08005949   Thumb Code    42  ad5933.o(.text)
    AD5933_Set_Start_Fre                     0x08005973   Thumb Code    96  ad5933.o(.text)
    AD5933_Set_frequency_increment           0x080059d3   Thumb Code   138  ad5933.o(.text)
    AD5933_Set_frequency_increment_Number    0x08005a5d   Thumb Code    26  ad5933.o(.text)
    AD5933_Set_settling_time                 0x08005a77   Thumb Code    90  ad5933.o(.text)
    Get_Real_imag_data                       0x08005ad1   Thumb Code   124  ad5933.o(.text)
    AD5933_Set_Parameter                     0x08005b4d   Thumb Code    54  ad5933.o(.text)
    AD5933_Calibration                       0x08005b83   Thumb Code   108  ad5933.o(.text)
    AD5933_Hardware_Check                    0x08005d67   Thumb Code   422  ad5933.o(.text)
    .text                                    0x08006038   Section        0  fre.o(.text)
    .text                                    0x08006344   Section        0  myiic.o(.text)
    .text                                    0x080065a4   Section        0  net_iic.o(.text)
    .text                                    0x08006ab8   Section        0  usart.o(.text)
    .text                                    0x08007064   Section        0  usart1.o(.text)
    .text                                    0x08007218   Section        0  usart2.o(.text)
    .text                                    0x080073f0   Section        0  usart3.o(.text)
    .text                                    0x080075d8   Section        0  uart4.o(.text)
    .text                                    0x08007784   Section        0  uart5.o(.text)
    .text                                    0x080078c8   Section        0  main.o(.text)
    .text                                    0x08007db0   Section        0  stm32f10x_it.o(.text)
    .text                                    0x08007dcc   Section        0  system_stm32f10x.o(.text)
    SetSysClockTo72                          0x08007dcd   Thumb Code   214  system_stm32f10x.o(.text)
    SetSysClock                              0x08007ea3   Thumb Code     8  system_stm32f10x.o(.text)
    .text                                    0x08007fac   Section        0  other.o(.text)
    .text                                    0x080087a4   Section        0  menu.o(.text)
    .text                                    0x08008e00   Section        0  barcode.o(.text)
    Read_Barcode_Format                      0x08008eb5   Thumb Code   152  barcode.o(.text)
    Barcode_Format_Check                     0x080090b9   Thumb Code   214  barcode.o(.text)
    .text                                    0x0800995c   Section        0  debug.o(.text)
    .text                                    0x0800a194   Section        0  hold_data.o(.text)
    .text                                    0x0800a394   Section        0  list_test.o(.text)
    .text                                    0x0800a59c   Section        0  test_config.o(.text)
    .text                                    0x0800a9b4   Section        0  eth_config.o(.text)
    .text                                    0x0800b7e8   Section        0  base_config.o(.text)
    .text                                    0x0800bf90   Section        0  block_check.o(.text)
    .text                                    0x0800c1c4   Section        0  reg_config.o(.text)
    .text                                    0x0800cda8   Section        0  sample_notice.o(.text)
    .text                                    0x0800d3e4   Section        0  dot.o(.text)
    .text                                    0x0800d9ec   Section        0  motor.o(.text)
    Calculate_Pulse_Count                    0x0800da8f   Thumb Code   422  motor.o(.text)
    Judge_Direction                          0x0800dc35   Thumb Code   142  motor.o(.text)
    .text                                    0x0800ea08   Section        0  usb_move.o(.text)
    .text                                    0x0800edb8   Section        0  modbus.o(.text)
    .text                                    0x0800fd90   Section        0  crc.o(.text)
    .text                                    0x0800fdcc   Section        0  x_axis.o(.text)
    .text                                    0x08010828   Section        0  y_axis.o(.text)
    .text                                    0x08011138   Section        0  os.o(.text)
    .text                                    0x08011924   Section        0  mr.o(.text)
    mohm_4wire_Test_Res                      0x08011925   Thumb Code   240  mr.o(.text)
    .text                                    0x08011fdc   Section        0  kohm.o(.text)
    .text                                    0x08012808   Section        0  open.o(.text)
    Open_Res_Test                            0x08012849   Thumb Code   126  open.o(.text)
    .text                                    0x080138d0   Section        0  short.o(.text)
    Short_Res_Test                           0x08013a79   Thumb Code   196  short.o(.text)
    .text                                    0x08014778   Section        0  diode.o(.text)
    Read_Diode_Volts                         0x08014779   Thumb Code    68  diode.o(.text)
    Read_TVS_Diode_Volts                     0x08014eb1   Thumb Code   118  diode.o(.text)
    .text                                    0x08015588   Section        0  uf.o(.text)
    .text                                    0x080162dc   Section        0  pf.o(.text)
    Read_pf_Cap_Value                        0x080162dd   Thumb Code    76  pf.o(.text)
    .text                                    0x08016acc   Section        0  os_study.o(.text)
    Short_RES_Test                           0x08016acd   Thumb Code   164  os_study.o(.text)
    .text                                    0x08016f24   Section        0  hall.o(.text)
    Set_ElectroMagnet                        0x08016fc1   Thumb Code   166  hall.o(.text)
    Read_Hall_Ouput_Vlots                    0x08017067   Thumb Code    68  hall.o(.text)
    .text                                    0x0801771c   Section        0  ldo.o(.text)
    Read_LDO_Volts                           0x080177bb   Thumb Code    94  ldo.o(.text)
    LDO_Volts_Test                           0x08017819   Thumb Code   942  ldo.o(.text)
    .text                                    0x08017da8   Section        0  leakage_i.o(.text)
    Read_Current                             0x08017da9   Thumb Code   128  leakage_i.o(.text)
    Leakage_Current_Test                     0x08017eb5   Thumb Code   788  leakage_i.o(.text)
    .text                                    0x080183ec   Section        0  led.o(.text)
    Read_LED_Vlots                           0x080183ed   Thumb Code    66  led.o(.text)
    .text                                    0x08018e2c   Section        0  switch.o(.text)
    .text                                    0x08019be8   Section        0  id.o(.text)
    Read_Register_Test                       0x08019be9   Thumb Code   566  id.o(.text)
    .text                                    0x0801a19c   Section        0  subus.o(.text)
    .text                                    0x0801a4e8   Section        0  rf.o(.text)
    .text                                    0x0801acd0   Section        0  rf_id.o(.text)
    .text                                    0x0801b19c   Section        0  wtb.o(.text)
    .text                                    0x0801b88c   Section        0  zdt.o(.text)
    .text                                    0x0801bc18   Section        0  data.o(.text)
    .text                                    0x0801d2ac   Section        0  cmd.o(.text)
    .text                                    0x0801d408   Section        2  use_no_semi_2.o(.text)
    .text                                    0x0801d40c   Section        0  c89vsprintf.o(.text)
    .text                                    0x0801d430   Section        0  __2printf.o(.text)
    .text                                    0x0801d448   Section        0  __2sprintf.o(.text)
    .text                                    0x0801d474   Section        0  _printf_str.o(.text)
    .text                                    0x0801d4c8   Section        0  _printf_dec.o(.text)
    .text                                    0x0801d540   Section        0  __printf_flags_ss_wp.o(.text)
    .text                                    0x0801d6c8   Section        0  atoi.o(.text)
    .text                                    0x0801d6e2   Section        0  strchr.o(.text)
    .text                                    0x0801d6f6   Section        0  strstr.o(.text)
    .text                                    0x0801d71a   Section        0  memcmp.o(.text)
    .text                                    0x0801d772   Section        0  strcpy.o(.text)
    .text                                    0x0801d7ba   Section        0  strlen.o(.text)
    .text                                    0x0801d7f8   Section        0  strcat.o(.text)
    .text                                    0x0801d810   Section      100  rt_memcpy_w.o(.text)
    .text                                    0x0801d874   Section       16  aeabi_memset.o(.text)
    .text                                    0x0801d884   Section       68  rt_memclr.o(.text)
    .text                                    0x0801d8c8   Section       78  rt_memclr_w.o(.text)
    .text                                    0x0801d916   Section       86  strncpy.o(.text)
    .text                                    0x0801d96c   Section      128  strcmpv7m.o(.text)
    .text                                    0x0801d9ec   Section        0  heapauxi.o(.text)
    .text                                    0x0801d9f2   Section        2  use_no_semi.o(.text)
    .text                                    0x0801d9f4   Section        8  rt_errno_addr_intlibspace.o(.text)
    .text                                    0x0801d9fc   Section        0  _rserrno.o(.text)
    .text                                    0x0801da12   Section        0  _printf_pad.o(.text)
    .text                                    0x0801da60   Section        0  _printf_truncate.o(.text)
    .text                                    0x0801da84   Section        0  _printf_intcommon.o(.text)
    .text                                    0x0801db36   Section        0  _printf_charcount.o(.text)
    .text                                    0x0801db5e   Section        0  _printf_fp_dec.o(.text)
    _fp_digits                               0x0801db61   Thumb Code   428  _printf_fp_dec.o(.text)
    .text                                    0x0801df78   Section        0  _printf_char_common.o(.text)
    _printf_input_char                       0x0801df79   Thumb Code    10  _printf_char_common.o(.text)
    .text                                    0x0801dfa8   Section        0  _sputc.o(.text)
    .text                                    0x0801dfb2   Section        0  _printf_char.o(.text)
    .text                                    0x0801dfe0   Section        0  _printf_char_file.o(.text)
    .text                                    0x0801e004   Section        0  _printf_wctomb.o(.text)
    .text                                    0x0801e0c0   Section        0  _printf_longlong_dec.o(.text)
    .text                                    0x0801e13c   Section        0  _printf_oct_int_ll.o(.text)
    _printf_longlong_oct_internal            0x0801e13d   Thumb Code     0  _printf_oct_int_ll.o(.text)
    .text                                    0x0801e1ac   Section        0  _printf_hex_int_ll_ptr.o(.text)
    _printf_hex_common                       0x0801e1ad   Thumb Code     0  _printf_hex_int_ll_ptr.o(.text)
    .text                                    0x0801e240   Section        0  strtod.o(.text)
    _local_sscanf                            0x0801e241   Thumb Code    60  strtod.o(.text)
    .text                                    0x0801e2e0   Section        0  strtol.o(.text)
    .text                                    0x0801e350   Section        8  libspace.o(.text)
    .text                                    0x0801e358   Section       16  rt_ctype_table.o(.text)
    .text                                    0x0801e368   Section        8  rt_locale_intlibspace.o(.text)
    .text                                    0x0801e370   Section      138  lludiv10.o(.text)
    .text                                    0x0801e3fa   Section        0  isspace.o(.text)
    .text                                    0x0801e40c   Section        0  _printf_fp_infnan.o(.text)
    .text                                    0x0801e48c   Section        0  _printf_wchar.o(.text)
    .text                                    0x0801e4b8   Section        0  _sgetc.o(.text)
    .text                                    0x0801e4f8   Section        0  _strtoul.o(.text)
    .text                                    0x0801e598   Section        0  bigflt0.o(.text)
    .text                                    0x0801e674   Section        0  ferror.o(.text)
    .text                                    0x0801e67c   Section        0  _wcrtomb.o(.text)
    .text                                    0x0801e6bc   Section       74  sys_stackheap_outer.o(.text)
    .text                                    0x0801e706   Section        0  _chval.o(.text)
    .text                                    0x0801e724   Section        0  scanf_fp.o(.text)
    _fp_value                                0x0801e725   Thumb Code   508  scanf_fp.o(.text)
    .text                                    0x0801ebc8   Section        0  exit.o(.text)
    .text                                    0x0801ebd4   Section        0  scanf_hexfp.o(.text)
    .text                                    0x0801eeec   Section        0  scanf_infnan.o(.text)
    .text                                    0x0801f020   Section       38  llshl.o(.text)
    CL$$btod_d2e                             0x0801f046   Section       62  btod.o(CL$$btod_d2e)
    CL$$btod_d2e_denorm_low                  0x0801f084   Section       70  btod.o(CL$$btod_d2e_denorm_low)
    CL$$btod_d2e_norm_op1                    0x0801f0ca   Section       96  btod.o(CL$$btod_d2e_norm_op1)
    CL$$btod_div_common                      0x0801f12a   Section      824  btod.o(CL$$btod_div_common)
    CL$$btod_e2d                             0x0801f464   Section       84  btod.o(CL$$btod_e2d)
    CL$$btod_e2e                             0x0801f4b8   Section      198  btod.o(CL$$btod_e2e)
    CL$$btod_ediv                            0x0801f57e   Section       40  btod.o(CL$$btod_ediv)
    CL$$btod_edivd                           0x0801f5a6   Section       40  btod.o(CL$$btod_edivd)
    CL$$btod_emul                            0x0801f5ce   Section       40  btod.o(CL$$btod_emul)
    CL$$btod_emuld                           0x0801f5f6   Section       40  btod.o(CL$$btod_emuld)
    CL$$btod_mult_common                     0x0801f61e   Section      580  btod.o(CL$$btod_mult_common)
    i.__ARM_fpclassify                       0x0801f862   Section        0  fpclassify.o(i.__ARM_fpclassify)
    i.__kernel_poly                          0x0801f88a   Section        0  poly.o(i.__kernel_poly)
    i.__mathlib_dbl_divzero                  0x0801f934   Section        0  dunder.o(i.__mathlib_dbl_divzero)
    i.__mathlib_dbl_infnan2                  0x0801f944   Section        0  dunder.o(i.__mathlib_dbl_infnan2)
    i.__mathlib_dbl_invalid                  0x0801f948   Section        0  dunder.o(i.__mathlib_dbl_invalid)
    i.__mathlib_dbl_overflow                 0x0801f954   Section        0  dunder.o(i.__mathlib_dbl_overflow)
    i.__mathlib_dbl_underflow                0x0801f964   Section        0  dunder.o(i.__mathlib_dbl_underflow)
    i.__mathlib_narrow                       0x0801f974   Section        0  narrow.o(i.__mathlib_narrow)
    i.__mathlib_tofloat                      0x0801f984   Section        0  narrow.o(i.__mathlib_tofloat)
    i.__support_ldexp                        0x0801fa0c   Section        0  ldexp.o(i.__support_ldexp)
    i._is_digit                              0x0801fa22   Section        0  __printf_wp.o(i._is_digit)
    i.atof                                   0x0801fa30   Section        0  atof.o(i.atof)
    i.frexp                                  0x0801fa5c   Section        0  frexp.o(i.frexp)
    i.ldexp                                  0x0801fab4   Section        0  ldexp.o(i.ldexp)
    i.pow                                    0x0801fb28   Section        0  pow.o(i.pow)
    i.sqrt                                   0x080204e0   Section        0  sqrt.o(i.sqrt)
    locale$$code                             0x0802052c   Section       44  lc_numeric_c.o(locale$$code)
    locale$$code                             0x08020558   Section       44  lc_ctype_c.o(locale$$code)
    x$fpl$d2f                                0x08020584   Section       98  d2f.o(x$fpl$d2f)
    x$fpl$dadd                               0x080205e8   Section      336  daddsub_clz.o(x$fpl$dadd)
    _dadd1                                   0x080205f9   Thumb Code     0  daddsub_clz.o(x$fpl$dadd)
    x$fpl$dcheck1                            0x08020738   Section       16  dcheck1.o(x$fpl$dcheck1)
    x$fpl$dcmpinf                            0x08020748   Section       24  dcmpi.o(x$fpl$dcmpinf)
    x$fpl$ddiv                               0x08020760   Section      688  ddiv.o(x$fpl$ddiv)
    ddiv_entry                               0x08020767   Thumb Code     0  ddiv.o(x$fpl$ddiv)
    x$fpl$deqf                               0x08020a10   Section      120  deqf.o(x$fpl$deqf)
    x$fpl$dfix                               0x08020a88   Section       94  dfix.o(x$fpl$dfix)
    x$fpl$dfixu                              0x08020ae8   Section       90  dfixu.o(x$fpl$dfixu)
    x$fpl$dflt                               0x08020b42   Section       46  dflt_clz.o(x$fpl$dflt)
    x$fpl$dfltu                              0x08020b70   Section       38  dflt_clz.o(x$fpl$dfltu)
    x$fpl$dleqf                              0x08020b98   Section      120  dleqf.o(x$fpl$dleqf)
    x$fpl$dmul                               0x08020c10   Section      340  dmul.o(x$fpl$dmul)
    x$fpl$dnaninf                            0x08020d64   Section      156  dnaninf.o(x$fpl$dnaninf)
    x$fpl$dretinf                            0x08020e00   Section       12  dretinf.o(x$fpl$dretinf)
    x$fpl$drleqf                             0x08020e0c   Section      108  drleqf.o(x$fpl$drleqf)
    x$fpl$drsb                               0x08020e78   Section       22  daddsub_clz.o(x$fpl$drsb)
    x$fpl$dsqrt                              0x08020e90   Section      460  dsqrt_noumaal.o(x$fpl$dsqrt)
    x$fpl$dsub                               0x0802105c   Section      468  daddsub_clz.o(x$fpl$dsub)
    _dsub1                                   0x0802106d   Thumb Code     0  daddsub_clz.o(x$fpl$dsub)
    x$fpl$f2d                                0x08021230   Section       86  f2d.o(x$fpl$f2d)
    x$fpl$fadd                               0x08021288   Section      196  faddsub_clz.o(x$fpl$fadd)
    _fadd1                                   0x08021297   Thumb Code     0  faddsub_clz.o(x$fpl$fadd)
    x$fpl$fcmpinf                            0x0802134c   Section       24  fcmpi.o(x$fpl$fcmpinf)
    x$fpl$fdiv                               0x08021364   Section      388  fdiv.o(x$fpl$fdiv)
    _fdiv1                                   0x08021365   Thumb Code     0  fdiv.o(x$fpl$fdiv)
    x$fpl$ffixu                              0x080214e8   Section       62  ffixu.o(x$fpl$ffixu)
    x$fpl$fflt                               0x08021528   Section       48  fflt_clz.o(x$fpl$fflt)
    x$fpl$ffltu                              0x08021558   Section       38  fflt_clz.o(x$fpl$ffltu)
    x$fpl$fleqf                              0x08021580   Section      104  fleqf.o(x$fpl$fleqf)
    x$fpl$fmul                               0x080215e8   Section      258  fmul.o(x$fpl$fmul)
    x$fpl$fnaninf                            0x080216ea   Section      140  fnaninf.o(x$fpl$fnaninf)
    x$fpl$fretinf                            0x08021776   Section       10  fretinf.o(x$fpl$fretinf)
    x$fpl$frleqf                             0x08021780   Section       98  frleqf.o(x$fpl$frleqf)
    x$fpl$fsub                               0x080217e4   Section      234  faddsub_clz.o(x$fpl$fsub)
    _fsub1                                   0x080217f3   Thumb Code     0  faddsub_clz.o(x$fpl$fsub)
    x$fpl$printf1                            0x080218ce   Section        4  printf1.o(x$fpl$printf1)
    x$fpl$retnan                             0x080218d2   Section      100  retnan.o(x$fpl$retnan)
    x$fpl$scalbn                             0x08021936   Section       92  scalbn.o(x$fpl$scalbn)
    x$fpl$scanf1                             0x08021992   Section        4  scanf1.o(x$fpl$scanf1)
    x$fpl$scanf2                             0x08021996   Section        8  scanf2.o(x$fpl$scanf2)
    x$fpl$trapveneer                         0x0802199e   Section       48  trapv.o(x$fpl$trapveneer)
    x$fpl$usenofp                            0x080219ce   Section        0  usenofp.o(x$fpl$usenofp)
    .constdata                               0x080219d0   Section      132  sup_fun.o(.constdata)
    .constdata                               0x08021a54   Section       16  usart.o(.constdata)
    .constdata                               0x08021a64   Section      206  barcode.o(.constdata)
    .constdata                               0x08021b34   Section    26000  test_config.o(.constdata)
    .constdata                               0x080280c4   Section      292  base_config.o(.constdata)
    .constdata                               0x080281e8   Section       80  block_check.o(.constdata)
    .constdata                               0x08028238   Section       76  reg_config.o(.constdata)
    .constdata                               0x08028284   Section       34  sample_notice.o(.constdata)
    .constdata                               0x080282a8   Section       70  dot.o(.constdata)
    .constdata                               0x080282f0   Section       34  motor.o(.constdata)
    .constdata                               0x08028314   Section       34  usb_move.o(.constdata)
    .constdata                               0x08028338   Section       16  modbus.o(.constdata)
    .constdata                               0x08028348   Section      512  crc.o(.constdata)
    .constdata                               0x08028548   Section       34  x_axis.o(.constdata)
    .constdata                               0x0802856c   Section       34  y_axis.o(.constdata)
    .constdata                               0x08028590   Section       24  kohm.o(.constdata)
    .constdata                               0x080285a8   Section     3096  open.o(.constdata)
    .constdata                               0x080291c0   Section     2580  short.o(.constdata)
    .constdata                               0x08029bd8   Section       48  diode.o(.constdata)
    .constdata                               0x08029c08   Section       24  hall.o(.constdata)
    .constdata                               0x08029c20   Section       24  ldo.o(.constdata)
    .constdata                               0x08029c38   Section       24  leakage_i.o(.constdata)
    .constdata                               0x08029c50   Section      800  led.o(.constdata)
    .constdata                               0x08029f70   Section       14  switch.o(.constdata)
    .constdata                               0x08029f7e   Section       17  __printf_flags_ss_wp.o(.constdata)
    maptable                                 0x08029f7e   Data          17  __printf_flags_ss_wp.o(.constdata)
    .constdata                               0x08029f90   Section      136  pow.o(.constdata)
    bp                                       0x08029f90   Data          16  pow.o(.constdata)
    dp_h                                     0x08029fa0   Data          16  pow.o(.constdata)
    dp_l                                     0x08029fb0   Data          16  pow.o(.constdata)
    L                                        0x08029fc0   Data          48  pow.o(.constdata)
    P                                        0x08029ff0   Data          40  pow.o(.constdata)
    .constdata                               0x0802a018   Section        8  _printf_wctomb.o(.constdata)
    initial_mbstate                          0x0802a018   Data           8  _printf_wctomb.o(.constdata)
    .constdata                               0x0802a020   Section       40  _printf_hex_int_ll_ptr.o(.constdata)
    uc_hextab                                0x0802a020   Data          20  _printf_hex_int_ll_ptr.o(.constdata)
    lc_hextab                                0x0802a034   Data          20  _printf_hex_int_ll_ptr.o(.constdata)
    .constdata                               0x0802a048   Section        8  qnan.o(.constdata)
    .constdata                               0x0802a050   Section      148  bigflt0.o(.constdata)
    tenpwrs_x                                0x0802a050   Data          60  bigflt0.o(.constdata)
    tenpwrs_i                                0x0802a08c   Data          64  bigflt0.o(.constdata)
    .conststring                             0x0802a0e4   Section       40  usmart.o(.conststring)
    .conststring                             0x0802a10c   Section      379  usmart_config.o(.conststring)
    .conststring                             0x0802a288   Section       37  sup_fun.o(.conststring)
    .conststring                             0x0802a2b0   Section      207  menu.o(.conststring)
    .conststring                             0x0802a380   Section      143  barcode.o(.conststring)
    .conststring                             0x0802a410   Section      143  debug.o(.conststring)
    .conststring                             0x0802a4a0   Section       40  test_config.o(.conststring)
    .conststring                             0x0802a4c8   Section     1313  reg_config.o(.conststring)
    .conststring                             0x0802a9ec   Section       47  sample_notice.o(.conststring)
    .conststring                             0x0802aa1c   Section      175  dot.o(.conststring)
    .conststring                             0x0802aacc   Section       63  usb_move.o(.conststring)
    .conststring                             0x0802ab0c   Section      197  x_axis.o(.conststring)
    .conststring                             0x0802abd4   Section       53  y_axis.o(.conststring)
    .conststring                             0x0802ac0c   Section      847  os.o(.conststring)
    .conststring                             0x0802af5c   Section      205  wtb.o(.conststring)
    .conststring                             0x0802b02c   Section       22  zdt.o(.conststring)
    .conststring                             0x0802b044   Section       77  data.o(.conststring)
    c$$dinf                                  0x0802b0b4   Section        8  fpconst.o(c$$dinf)
    locale$$data                             0x0802b0bc   Section       28  lc_numeric_c.o(locale$$data)
    __lcnum_c_name                           0x0802b0c0   Data           2  lc_numeric_c.o(locale$$data)
    __lcnum_c_start                          0x0802b0c8   Data           0  lc_numeric_c.o(locale$$data)
    __lcnum_c_point                          0x0802b0d4   Data           0  lc_numeric_c.o(locale$$data)
    __lcnum_c_thousands                      0x0802b0d6   Data           0  lc_numeric_c.o(locale$$data)
    __lcnum_c_grouping                       0x0802b0d7   Data           0  lc_numeric_c.o(locale$$data)
    locale$$data                             0x0802b0d8   Section      272  lc_ctype_c.o(locale$$data)
    __lcnum_c_end                            0x0802b0d8   Data           0  lc_numeric_c.o(locale$$data)
    __lcctype_c_name                         0x0802b0dc   Data           2  lc_ctype_c.o(locale$$data)
    __lcctype_c_start                        0x0802b0e4   Data           0  lc_ctype_c.o(locale$$data)
    __lcctype_c_end                          0x0802b1e8   Data           0  lc_ctype_c.o(locale$$data)
    .data                                    0x20000000   Section       20  stm32f10x_rcc.o(.data)
    APBAHBPrescTable                         0x20000000   Data          16  stm32f10x_rcc.o(.data)
    ADCPrescTable                            0x20000010   Data           4  stm32f10x_rcc.o(.data)
    .data                                    0x20000014   Section        4  delay.o(.data)
    fac_us                                   0x20000014   Data           1  delay.o(.data)
    fac_ms                                   0x20000016   Data           2  delay.o(.data)
    .data                                    0x20000018   Section       28  usmart.o(.data)
    .data                                    0x20000034   Section      324  usmart_config.o(.data)
    .data                                    0x20000178   Section        8  24cxx.o(.data)
    .data                                    0x20000180   Section        4  sup_fun.o(.data)
    .data                                    0x20000184   Section        1  ad7176.o(.data)
    .data                                    0x20000185   Section        3  lcd3033.o(.data)
    .data                                    0x20000188   Section       48  ad5933.o(.data)
    .data                                    0x200001b8   Section        8  fre.o(.data)
    .data                                    0x200001c0   Section       12  usart.o(.data)
    .data                                    0x200001cc   Section        1  uart5.o(.data)
    .data                                    0x200001d0   Section       20  system_stm32f10x.o(.data)
    .data                                    0x200001e4   Section     3075  other.o(.data)
    .data                                    0x20000de8   Section      200  menu.o(.data)
    .data                                    0x20000eb0   Section      200  barcode.o(.data)
    .data                                    0x20000f78   Section       80  debug.o(.data)
    .data                                    0x20000fc8   Section       64  list_test.o(.data)
    .data                                    0x20001008   Section       80  eth_config.o(.data)
    .data                                    0x20001058   Section     4760  reg_config.o(.data)
    .data                                    0x200022f0   Section       32  sample_notice.o(.data)
    .data                                    0x20002310   Section       96  dot.o(.data)
    .data                                    0x20002370   Section       16  motor.o(.data)
    Motor_Pulse_couter                       0x20002374   Data           4  motor.o(.data)
    Fre_Accelerate_Set                       0x20002378   Data           8  motor.o(.data)
    .data                                    0x20002380   Section       40  usb_move.o(.data)
    .data                                    0x200023a8   Section        8  modbus.o(.data)
    .data                                    0x200023b0   Section      180  x_axis.o(.data)
    .data                                    0x20002468   Section      112  y_axis.o(.data)
    .data                                    0x200024d8   Section     1540  os.o(.data)
    .data                                    0x20002ae0   Section       16  uf.o(.data)
    .data                                    0x20002af0   Section        2  led.o(.data)
    .data                                    0x20002af2   Section        1  subus.o(.data)
    .data                                    0x20002af3   Section        8  rf.o(.data)
    Sbuds_Relay_Status                       0x20002af3   Data           4  rf.o(.data)
    .data                                    0x20002afc   Section      456  wtb.o(.data)
    .data                                    0x20002cc4   Section       12  zdt.o(.data)
    .bss                                     0x20002cd0   Section       64  lcd3033.o(.bss)
    .bss                                     0x20002d10   Section      640  usart.o(.bss)
    .bss                                     0x20002f90   Section     1000  list_test.o(.bss)
    .bss                                     0x20003378   Section     6024  test_config.o(.bss)
    .bss                                     0x20004b00   Section       32  eth_config.o(.bss)
    .bss                                     0x20004b20   Section       44  base_config.o(.bss)
    .bss                                     0x20004b50   Section       96  motor.o(.bss)
    .bss                                     0x20004bb0   Section    31560  open.o(.bss)
    .bss                                     0x2000c6f8   Section     3332  short.o(.bss)
    .bss                                     0x2000d3fc   Section       96  libspace.o(.bss)
    HEAP                                     0x2000d460   Section     1024  startup_stm32f10x_hd.o(HEAP)
    Heap_Mem                                 0x2000d460   Data        1024  startup_stm32f10x_hd.o(HEAP)
    STACK                                    0x2000d860   Section     2048  startup_stm32f10x_hd.o(STACK)
    Stack_Mem                                0x2000d860   Data        2048  startup_stm32f10x_hd.o(STACK)
    __initial_sp                             0x2000e060   Data           0  startup_stm32f10x_hd.o(STACK)

    Global Symbols

    Symbol Name                              Value     Ov Type        Size  Object(Section)

    BuildAttributes$$THM_ISAv4$P$D$K$B$S$PE$A:L22UL41UL21$X:L11$S22US41US21$IEEE1$IW$USESV6$~STKCKD$USESV7$~SHL$OTIME$ROPI$IEEEX$EBA8$UX$STANDARDLIB$REQ8$PRES8$EABIv2 0x00000000   Number         0  anon$$obj.o ABSOLUTE
    __ARM_use_no_argv                        0x00000000   Number         0  main.o ABSOLUTE
    _printf_flags                            0x00000000   Number         0  printf_stubs.o ABSOLUTE
    _printf_return_value                     0x00000000   Number         0  printf_stubs.o ABSOLUTE
    _printf_sizespec                         0x00000000   Number         0  printf_stubs.o ABSOLUTE
    _printf_widthprec                        0x00000000   Number         0  printf_stubs.o ABSOLUTE
    __ARM_exceptions_init                     - Undefined Weak Reference
    __alloca_initialize                       - Undefined Weak Reference
    __arm_preinit_                            - Undefined Weak Reference
    __cpp_initialize__aeabi_                  - Undefined Weak Reference
    __cxa_finalize                            - Undefined Weak Reference
    __sigvec_lookup                           - Undefined Weak Reference
    _atexit_init                              - Undefined Weak Reference
    _call_atexit_fns                          - Undefined Weak Reference
    _clock_init                               - Undefined Weak Reference
    _fp_trap_init                             - Undefined Weak Reference
    _fp_trap_shutdown                         - Undefined Weak Reference
    _get_lc_collate                           - Undefined Weak Reference
    _get_lc_monetary                          - Undefined Weak Reference
    _get_lc_time                              - Undefined Weak Reference
    _getenv_init                              - Undefined Weak Reference
    _handle_redirection                       - Undefined Weak Reference
    _init_alloc                               - Undefined Weak Reference
    _init_user_alloc                          - Undefined Weak Reference
    _initio                                   - Undefined Weak Reference
    _mutex_acquire                            - Undefined Weak Reference
    _mutex_release                            - Undefined Weak Reference
    _printf_fp_hex                            - Undefined Weak Reference
    _printf_mbtowc                            - Undefined Weak Reference
    _printf_wc                                - Undefined Weak Reference
    _rand_init                                - Undefined Weak Reference
    _signal_finish                            - Undefined Weak Reference
    _signal_init                              - Undefined Weak Reference
    _terminate_alloc                          - Undefined Weak Reference
    _terminate_user_alloc                     - Undefined Weak Reference
    _terminateio                              - Undefined Weak Reference
    __Vectors_Size                           0x00000130   Number         0  startup_stm32f10x_hd.o ABSOLUTE
    __Vectors                                0x08000000   Data           4  startup_stm32f10x_hd.o(RESET)
    __Vectors_End                            0x08000130   Data           0  startup_stm32f10x_hd.o(RESET)
    __main                                   0x08000131   Thumb Code     8  __main.o(!!!main)
    __scatterload                            0x08000139   Thumb Code     0  __scatter.o(!!!scatter)
    __scatterload_rt2                        0x08000139   Thumb Code    44  __scatter.o(!!!scatter)
    __scatterload_rt2_thumb_only             0x08000139   Thumb Code     0  __scatter.o(!!!scatter)
    __scatterload_null                       0x08000147   Thumb Code     0  __scatter.o(!!!scatter)
    __decompress                             0x0800016d   Thumb Code    90  __dczerorl2.o(!!dczerorl2)
    __decompress1                            0x0800016d   Thumb Code     0  __dczerorl2.o(!!dczerorl2)
    __scatterload_zeroinit                   0x080001c9   Thumb Code    28  __scatter_zi.o(!!handler_zi)
    _printf_n                                0x080001e5   Thumb Code     0  _printf_n.o(.ARM.Collect$$_printf_percent$$00000001)
    _printf_percent                          0x080001e5   Thumb Code     0  _printf_percent.o(.ARM.Collect$$_printf_percent$$00000000)
    _printf_p                                0x080001eb   Thumb Code     0  _printf_p.o(.ARM.Collect$$_printf_percent$$00000002)
    _printf_f                                0x080001f1   Thumb Code     0  _printf_f.o(.ARM.Collect$$_printf_percent$$00000003)
    _printf_e                                0x080001f7   Thumb Code     0  _printf_e.o(.ARM.Collect$$_printf_percent$$00000004)
    _printf_g                                0x080001fd   Thumb Code     0  _printf_g.o(.ARM.Collect$$_printf_percent$$00000005)
    _printf_a                                0x08000203   Thumb Code     0  _printf_a.o(.ARM.Collect$$_printf_percent$$00000006)
    _printf_ll                               0x08000209   Thumb Code     0  _printf_ll.o(.ARM.Collect$$_printf_percent$$00000007)
    _printf_i                                0x08000213   Thumb Code     0  _printf_i.o(.ARM.Collect$$_printf_percent$$00000008)
    _printf_d                                0x08000219   Thumb Code     0  _printf_d.o(.ARM.Collect$$_printf_percent$$00000009)
    _printf_u                                0x0800021f   Thumb Code     0  _printf_u.o(.ARM.Collect$$_printf_percent$$0000000A)
    _printf_o                                0x08000225   Thumb Code     0  _printf_o.o(.ARM.Collect$$_printf_percent$$0000000B)
    _printf_x                                0x0800022b   Thumb Code     0  _printf_x.o(.ARM.Collect$$_printf_percent$$0000000C)
    _printf_lli                              0x08000231   Thumb Code     0  _printf_lli.o(.ARM.Collect$$_printf_percent$$0000000D)
    _printf_lld                              0x08000237   Thumb Code     0  _printf_lld.o(.ARM.Collect$$_printf_percent$$0000000E)
    _printf_llu                              0x0800023d   Thumb Code     0  _printf_llu.o(.ARM.Collect$$_printf_percent$$0000000F)
    _printf_llo                              0x08000243   Thumb Code     0  _printf_llo.o(.ARM.Collect$$_printf_percent$$00000010)
    _printf_llx                              0x08000249   Thumb Code     0  _printf_llx.o(.ARM.Collect$$_printf_percent$$00000011)
    _printf_l                                0x0800024f   Thumb Code     0  _printf_l.o(.ARM.Collect$$_printf_percent$$00000012)
    _printf_c                                0x08000259   Thumb Code     0  _printf_c.o(.ARM.Collect$$_printf_percent$$00000013)
    _printf_s                                0x0800025f   Thumb Code     0  _printf_s.o(.ARM.Collect$$_printf_percent$$00000014)
    _printf_lc                               0x08000265   Thumb Code     0  _printf_lc.o(.ARM.Collect$$_printf_percent$$00000015)
    _printf_ls                               0x0800026b   Thumb Code     0  _printf_ls.o(.ARM.Collect$$_printf_percent$$00000016)
    _printf_percent_end                      0x08000271   Thumb Code     0  _printf_percent_end.o(.ARM.Collect$$_printf_percent$$00000017)
    __rt_lib_init                            0x08000275   Thumb Code     0  libinit.o(.ARM.Collect$$libinit$$00000000)
    __rt_lib_init_fp_1                       0x08000277   Thumb Code     0  libinit2.o(.ARM.Collect$$libinit$$00000002)
    __rt_lib_init_heap_1                     0x08000277   Thumb Code     0  libinit2.o(.ARM.Collect$$libinit$$0000000A)
    __rt_lib_init_lc_common                  0x08000277   Thumb Code     0  libinit2.o(.ARM.Collect$$libinit$$0000000F)
    __rt_lib_init_preinit_1                  0x08000277   Thumb Code     0  libinit2.o(.ARM.Collect$$libinit$$00000004)
    __rt_lib_init_rand_1                     0x08000277   Thumb Code     0  libinit2.o(.ARM.Collect$$libinit$$0000000E)
    __rt_lib_init_user_alloc_1               0x08000277   Thumb Code     0  libinit2.o(.ARM.Collect$$libinit$$0000000C)
    __rt_lib_init_lc_collate_1               0x0800027d   Thumb Code     0  libinit2.o(.ARM.Collect$$libinit$$00000011)
    __rt_lib_init_lc_ctype_2                 0x0800027d   Thumb Code     0  libinit2.o(.ARM.Collect$$libinit$$00000012)
    __rt_lib_init_lc_ctype_1                 0x08000289   Thumb Code     0  libinit2.o(.ARM.Collect$$libinit$$00000013)
    __rt_lib_init_lc_monetary_1              0x08000289   Thumb Code     0  libinit2.o(.ARM.Collect$$libinit$$00000015)
    __rt_lib_init_lc_numeric_2               0x08000289   Thumb Code     0  libinit2.o(.ARM.Collect$$libinit$$00000016)
    __rt_lib_init_alloca_1                   0x08000293   Thumb Code     0  libinit2.o(.ARM.Collect$$libinit$$0000002E)
    __rt_lib_init_argv_1                     0x08000293   Thumb Code     0  libinit2.o(.ARM.Collect$$libinit$$0000002C)
    __rt_lib_init_atexit_1                   0x08000293   Thumb Code     0  libinit2.o(.ARM.Collect$$libinit$$0000001B)
    __rt_lib_init_clock_1                    0x08000293   Thumb Code     0  libinit2.o(.ARM.Collect$$libinit$$00000021)
    __rt_lib_init_cpp_1                      0x08000293   Thumb Code     0  libinit2.o(.ARM.Collect$$libinit$$00000032)
    __rt_lib_init_exceptions_1               0x08000293   Thumb Code     0  libinit2.o(.ARM.Collect$$libinit$$00000030)
    __rt_lib_init_fp_trap_1                  0x08000293   Thumb Code     0  libinit2.o(.ARM.Collect$$libinit$$0000001F)
    __rt_lib_init_getenv_1                   0x08000293   Thumb Code     0  libinit2.o(.ARM.Collect$$libinit$$00000023)
    __rt_lib_init_lc_numeric_1               0x08000293   Thumb Code     0  libinit2.o(.ARM.Collect$$libinit$$00000017)
    __rt_lib_init_lc_time_1                  0x08000293   Thumb Code     0  libinit2.o(.ARM.Collect$$libinit$$00000019)
    __rt_lib_init_return                     0x08000293   Thumb Code     0  libinit2.o(.ARM.Collect$$libinit$$00000033)
    __rt_lib_init_signal_1                   0x08000293   Thumb Code     0  libinit2.o(.ARM.Collect$$libinit$$0000001D)
    __rt_lib_init_stdio_1                    0x08000293   Thumb Code     0  libinit2.o(.ARM.Collect$$libinit$$00000025)
    __rt_lib_shutdown                        0x08000295   Thumb Code     0  libshutdown.o(.ARM.Collect$$libshutdown$$00000000)
    __rt_lib_shutdown_fp_trap_1              0x08000297   Thumb Code     0  libshutdown2.o(.ARM.Collect$$libshutdown$$00000006)
    __rt_lib_shutdown_heap_1                 0x08000297   Thumb Code     0  libshutdown2.o(.ARM.Collect$$libshutdown$$0000000E)
    __rt_lib_shutdown_return                 0x08000297   Thumb Code     0  libshutdown2.o(.ARM.Collect$$libshutdown$$0000000F)
    __rt_lib_shutdown_signal_1               0x08000297   Thumb Code     0  libshutdown2.o(.ARM.Collect$$libshutdown$$00000009)
    __rt_lib_shutdown_stdio_1                0x08000297   Thumb Code     0  libshutdown2.o(.ARM.Collect$$libshutdown$$00000003)
    __rt_lib_shutdown_user_alloc_1           0x08000297   Thumb Code     0  libshutdown2.o(.ARM.Collect$$libshutdown$$0000000B)
    __rt_entry                               0x08000299   Thumb Code     0  __rtentry.o(.ARM.Collect$$rtentry$$00000000)
    __rt_entry_presh_1                       0x08000299   Thumb Code     0  __rtentry2.o(.ARM.Collect$$rtentry$$00000002)
    __rt_entry_sh                            0x08000299   Thumb Code     0  __rtentry4.o(.ARM.Collect$$rtentry$$00000004)
    __rt_entry_li                            0x0800029f   Thumb Code     0  __rtentry2.o(.ARM.Collect$$rtentry$$0000000A)
    __rt_entry_postsh_1                      0x0800029f   Thumb Code     0  __rtentry2.o(.ARM.Collect$$rtentry$$00000009)
    __rt_entry_main                          0x080002a3   Thumb Code     0  __rtentry2.o(.ARM.Collect$$rtentry$$0000000D)
    __rt_entry_postli_1                      0x080002a3   Thumb Code     0  __rtentry2.o(.ARM.Collect$$rtentry$$0000000C)
    __rt_exit                                0x080002ab   Thumb Code     0  rtexit.o(.ARM.Collect$$rtexit$$00000000)
    __rt_exit_ls                             0x080002ad   Thumb Code     0  rtexit2.o(.ARM.Collect$$rtexit$$00000003)
    __rt_exit_prels_1                        0x080002ad   Thumb Code     0  rtexit2.o(.ARM.Collect$$rtexit$$00000002)
    __rt_exit_exit                           0x080002b1   Thumb Code     0  rtexit2.o(.ARM.Collect$$rtexit$$00000004)
    NVIC_PriorityGroupConfig                 0x080002b9   Thumb Code    10  misc.o(.text)
    NVIC_Init                                0x080002c3   Thumb Code   100  misc.o(.text)
    NVIC_SetVectorTable                      0x08000327   Thumb Code    14  misc.o(.text)
    NVIC_SystemLPConfig                      0x08000335   Thumb Code    34  misc.o(.text)
    SysTick_CLKSourceConfig                  0x08000357   Thumb Code    40  misc.o(.text)
    DAC_DeInit                               0x08000395   Thumb Code    22  stm32f10x_dac.o(.text)
    DAC_Init                                 0x080003ab   Thumb Code    46  stm32f10x_dac.o(.text)
    DAC_StructInit                           0x080003d9   Thumb Code    12  stm32f10x_dac.o(.text)
    DAC_Cmd                                  0x080003e5   Thumb Code    34  stm32f10x_dac.o(.text)
    DAC_DMACmd                               0x08000407   Thumb Code    38  stm32f10x_dac.o(.text)
    DAC_SoftwareTriggerCmd                   0x0800042d   Thumb Code    48  stm32f10x_dac.o(.text)
    DAC_DualSoftwareTriggerCmd               0x0800045d   Thumb Code    38  stm32f10x_dac.o(.text)
    DAC_WaveGenerationCmd                    0x08000483   Thumb Code    36  stm32f10x_dac.o(.text)
    DAC_SetChannel1Data                      0x080004a7   Thumb Code    26  stm32f10x_dac.o(.text)
    DAC_SetChannel2Data                      0x080004c1   Thumb Code    26  stm32f10x_dac.o(.text)
    DAC_SetDualChannelData                   0x080004db   Thumb Code    32  stm32f10x_dac.o(.text)
    DAC_GetDataOutputValue                   0x080004fb   Thumb Code    32  stm32f10x_dac.o(.text)
    DMA_DeInit                               0x08000521   Thumb Code   324  stm32f10x_dma.o(.text)
    DMA_Init                                 0x08000665   Thumb Code    60  stm32f10x_dma.o(.text)
    DMA_StructInit                           0x080006a1   Thumb Code    26  stm32f10x_dma.o(.text)
    DMA_Cmd                                  0x080006bb   Thumb Code    24  stm32f10x_dma.o(.text)
    DMA_ITConfig                             0x080006d3   Thumb Code    18  stm32f10x_dma.o(.text)
    DMA_SetCurrDataCounter                   0x080006e5   Thumb Code     4  stm32f10x_dma.o(.text)
    DMA_GetCurrDataCounter                   0x080006e9   Thumb Code     8  stm32f10x_dma.o(.text)
    DMA_GetFlagStatus                        0x080006f1   Thumb Code    40  stm32f10x_dma.o(.text)
    DMA_ClearFlag                            0x08000719   Thumb Code    22  stm32f10x_dma.o(.text)
    DMA_GetITStatus                          0x0800072f   Thumb Code    40  stm32f10x_dma.o(.text)
    DMA_ClearITPendingBit                    0x08000757   Thumb Code    22  stm32f10x_dma.o(.text)
    EXTI_DeInit                              0x08000775   Thumb Code    28  stm32f10x_exti.o(.text)
    EXTI_Init                                0x08000791   Thumb Code   142  stm32f10x_exti.o(.text)
    EXTI_StructInit                          0x0800081f   Thumb Code    16  stm32f10x_exti.o(.text)
    EXTI_GenerateSWInterrupt                 0x0800082f   Thumb Code    16  stm32f10x_exti.o(.text)
    EXTI_GetFlagStatus                       0x0800083f   Thumb Code    22  stm32f10x_exti.o(.text)
    EXTI_ClearFlag                           0x08000855   Thumb Code     8  stm32f10x_exti.o(.text)
    EXTI_GetITStatus                         0x0800085d   Thumb Code    34  stm32f10x_exti.o(.text)
    EXTI_ClearITPendingBit                   0x0800087f   Thumb Code     8  stm32f10x_exti.o(.text)
    GPIO_DeInit                              0x08000891   Thumb Code   172  stm32f10x_gpio.o(.text)
    GPIO_AFIODeInit                          0x0800093d   Thumb Code    20  stm32f10x_gpio.o(.text)
    GPIO_Init                                0x08000951   Thumb Code   278  stm32f10x_gpio.o(.text)
    GPIO_StructInit                          0x08000a67   Thumb Code    16  stm32f10x_gpio.o(.text)
    GPIO_ReadInputDataBit                    0x08000a77   Thumb Code    18  stm32f10x_gpio.o(.text)
    GPIO_ReadInputData                       0x08000a89   Thumb Code     8  stm32f10x_gpio.o(.text)
    GPIO_ReadOutputDataBit                   0x08000a91   Thumb Code    18  stm32f10x_gpio.o(.text)
    GPIO_ReadOutputData                      0x08000aa3   Thumb Code     8  stm32f10x_gpio.o(.text)
    GPIO_SetBits                             0x08000aab   Thumb Code     4  stm32f10x_gpio.o(.text)
    GPIO_ResetBits                           0x08000aaf   Thumb Code     4  stm32f10x_gpio.o(.text)
    GPIO_WriteBit                            0x08000ab3   Thumb Code    10  stm32f10x_gpio.o(.text)
    GPIO_Write                               0x08000abd   Thumb Code     4  stm32f10x_gpio.o(.text)
    GPIO_PinLockConfig                       0x08000ac1   Thumb Code    18  stm32f10x_gpio.o(.text)
    GPIO_EventOutputConfig                   0x08000ad3   Thumb Code    26  stm32f10x_gpio.o(.text)
    GPIO_EventOutputCmd                      0x08000aed   Thumb Code     6  stm32f10x_gpio.o(.text)
    GPIO_PinRemapConfig                      0x08000af3   Thumb Code   138  stm32f10x_gpio.o(.text)
    GPIO_EXTILineConfig                      0x08000b7d   Thumb Code    66  stm32f10x_gpio.o(.text)
    GPIO_ETH_MediaInterfaceConfig            0x08000bbf   Thumb Code     8  stm32f10x_gpio.o(.text)
    RCC_DeInit                               0x08000bed   Thumb Code    64  stm32f10x_rcc.o(.text)
    RCC_HSEConfig                            0x08000c2d   Thumb Code    70  stm32f10x_rcc.o(.text)
    RCC_GetFlagStatus                        0x08000c73   Thumb Code    56  stm32f10x_rcc.o(.text)
    RCC_WaitForHSEStartUp                    0x08000cab   Thumb Code    56  stm32f10x_rcc.o(.text)
    RCC_AdjustHSICalibrationValue            0x08000ce3   Thumb Code    20  stm32f10x_rcc.o(.text)
    RCC_HSICmd                               0x08000cf7   Thumb Code     6  stm32f10x_rcc.o(.text)
    RCC_PLLConfig                            0x08000cfd   Thumb Code    24  stm32f10x_rcc.o(.text)
    RCC_PLLCmd                               0x08000d15   Thumb Code     6  stm32f10x_rcc.o(.text)
    RCC_SYSCLKConfig                         0x08000d1b   Thumb Code    18  stm32f10x_rcc.o(.text)
    RCC_GetSYSCLKSource                      0x08000d2d   Thumb Code    10  stm32f10x_rcc.o(.text)
    RCC_HCLKConfig                           0x08000d37   Thumb Code    18  stm32f10x_rcc.o(.text)
    RCC_PCLK1Config                          0x08000d49   Thumb Code    18  stm32f10x_rcc.o(.text)
    RCC_PCLK2Config                          0x08000d5b   Thumb Code    20  stm32f10x_rcc.o(.text)
    RCC_ITConfig                             0x08000d6f   Thumb Code    26  stm32f10x_rcc.o(.text)
    RCC_USBCLKConfig                         0x08000d89   Thumb Code     8  stm32f10x_rcc.o(.text)
    RCC_ADCCLKConfig                         0x08000d91   Thumb Code    18  stm32f10x_rcc.o(.text)
    RCC_LSEConfig                            0x08000da3   Thumb Code    50  stm32f10x_rcc.o(.text)
    RCC_LSICmd                               0x08000dd5   Thumb Code     6  stm32f10x_rcc.o(.text)
    RCC_RTCCLKConfig                         0x08000ddb   Thumb Code    12  stm32f10x_rcc.o(.text)
    RCC_RTCCLKCmd                            0x08000de7   Thumb Code     8  stm32f10x_rcc.o(.text)
    RCC_GetClocksFreq                        0x08000def   Thumb Code   192  stm32f10x_rcc.o(.text)
    RCC_AHBPeriphClockCmd                    0x08000eaf   Thumb Code    26  stm32f10x_rcc.o(.text)
    RCC_APB2PeriphClockCmd                   0x08000ec9   Thumb Code    26  stm32f10x_rcc.o(.text)
    RCC_APB1PeriphClockCmd                   0x08000ee3   Thumb Code    26  stm32f10x_rcc.o(.text)
    RCC_APB2PeriphResetCmd                   0x08000efd   Thumb Code    26  stm32f10x_rcc.o(.text)
    RCC_APB1PeriphResetCmd                   0x08000f17   Thumb Code    26  stm32f10x_rcc.o(.text)
    RCC_BackupResetCmd                       0x08000f31   Thumb Code     8  stm32f10x_rcc.o(.text)
    RCC_ClockSecuritySystemCmd               0x08000f39   Thumb Code     6  stm32f10x_rcc.o(.text)
    RCC_MCOConfig                            0x08000f3f   Thumb Code     6  stm32f10x_rcc.o(.text)
    RCC_ClearFlag                            0x08000f45   Thumb Code    14  stm32f10x_rcc.o(.text)
    RCC_GetITStatus                          0x08000f53   Thumb Code    20  stm32f10x_rcc.o(.text)
    RCC_ClearITPendingBit                    0x08000f67   Thumb Code     6  stm32f10x_rcc.o(.text)
    TIM_DeInit                               0x08000f91   Thumb Code   424  stm32f10x_tim.o(.text)
    TIM_TimeBaseInit                         0x08001139   Thumb Code   122  stm32f10x_tim.o(.text)
    TIM_OC1Init                              0x080011b3   Thumb Code   132  stm32f10x_tim.o(.text)
    TIM_OC2Init                              0x08001237   Thumb Code   154  stm32f10x_tim.o(.text)
    TIM_OC3Init                              0x080012d1   Thumb Code   150  stm32f10x_tim.o(.text)
    TIM_OC4Init                              0x08001367   Thumb Code   182  stm32f10x_tim.o(.text)
    TIM_SetIC4Prescaler                      0x0800141d   Thumb Code    26  stm32f10x_tim.o(.text)
    TIM_SetIC3Prescaler                      0x080014b9   Thumb Code    18  stm32f10x_tim.o(.text)
    TIM_SetIC2Prescaler                      0x08001545   Thumb Code    26  stm32f10x_tim.o(.text)
    TIM_SetIC1Prescaler                      0x080015e1   Thumb Code    18  stm32f10x_tim.o(.text)
    TIM_ICInit                               0x0800165f   Thumb Code   150  stm32f10x_tim.o(.text)
    TIM_PWMIConfig                           0x080016f5   Thumb Code   124  stm32f10x_tim.o(.text)
    TIM_BDTRConfig                           0x08001771   Thumb Code    32  stm32f10x_tim.o(.text)
    TIM_TimeBaseStructInit                   0x08001791   Thumb Code    18  stm32f10x_tim.o(.text)
    TIM_OCStructInit                         0x080017a3   Thumb Code    20  stm32f10x_tim.o(.text)
    TIM_ICStructInit                         0x080017b7   Thumb Code    18  stm32f10x_tim.o(.text)
    TIM_BDTRStructInit                       0x080017c9   Thumb Code    40  stm32f10x_tim.o(.text)
    TIM_Cmd                                  0x080017f1   Thumb Code    24  stm32f10x_tim.o(.text)
    TIM_CtrlPWMOutputs                       0x08001809   Thumb Code    30  stm32f10x_tim.o(.text)
    TIM_ITConfig                             0x08001827   Thumb Code    18  stm32f10x_tim.o(.text)
    TIM_GenerateEvent                        0x08001839   Thumb Code     4  stm32f10x_tim.o(.text)
    TIM_DMAConfig                            0x0800183d   Thumb Code    10  stm32f10x_tim.o(.text)
    TIM_DMACmd                               0x08001847   Thumb Code    18  stm32f10x_tim.o(.text)
    TIM_InternalClockConfig                  0x08001859   Thumb Code    12  stm32f10x_tim.o(.text)
    TIM_SelectInputTrigger                   0x08001865   Thumb Code    18  stm32f10x_tim.o(.text)
    TIM_ITRxExternalClockConfig              0x08001877   Thumb Code    24  stm32f10x_tim.o(.text)
    TIM_TIxExternalClockConfig               0x0800188f   Thumb Code    62  stm32f10x_tim.o(.text)
    TIM_ETRConfig                            0x080018cd   Thumb Code    28  stm32f10x_tim.o(.text)
    TIM_ETRClockMode1Config                  0x080018e9   Thumb Code    54  stm32f10x_tim.o(.text)
    TIM_ETRClockMode2Config                  0x0800191f   Thumb Code    32  stm32f10x_tim.o(.text)
    TIM_PrescalerConfig                      0x0800193f   Thumb Code     6  stm32f10x_tim.o(.text)
    TIM_CounterModeConfig                    0x08001945   Thumb Code    18  stm32f10x_tim.o(.text)
    TIM_EncoderInterfaceConfig               0x08001957   Thumb Code    66  stm32f10x_tim.o(.text)
    TIM_ForcedOC1Config                      0x08001999   Thumb Code    18  stm32f10x_tim.o(.text)
    TIM_ForcedOC2Config                      0x080019ab   Thumb Code    26  stm32f10x_tim.o(.text)
    TIM_ForcedOC3Config                      0x080019c5   Thumb Code    18  stm32f10x_tim.o(.text)
    TIM_ForcedOC4Config                      0x080019d7   Thumb Code    26  stm32f10x_tim.o(.text)
    TIM_ARRPreloadConfig                     0x080019f1   Thumb Code    24  stm32f10x_tim.o(.text)
    TIM_SelectCOM                            0x08001a09   Thumb Code    24  stm32f10x_tim.o(.text)
    TIM_SelectCCDMA                          0x08001a21   Thumb Code    24  stm32f10x_tim.o(.text)
    TIM_CCPreloadControl                     0x08001a39   Thumb Code    24  stm32f10x_tim.o(.text)
    TIM_OC1PreloadConfig                     0x08001a51   Thumb Code    18  stm32f10x_tim.o(.text)
    TIM_OC2PreloadConfig                     0x08001a63   Thumb Code    26  stm32f10x_tim.o(.text)
    TIM_OC3PreloadConfig                     0x08001a7d   Thumb Code    18  stm32f10x_tim.o(.text)
    TIM_OC4PreloadConfig                     0x08001a8f   Thumb Code    26  stm32f10x_tim.o(.text)
    TIM_OC1FastConfig                        0x08001aa9   Thumb Code    18  stm32f10x_tim.o(.text)
    TIM_OC2FastConfig                        0x08001abb   Thumb Code    26  stm32f10x_tim.o(.text)
    TIM_OC3FastConfig                        0x08001ad5   Thumb Code    18  stm32f10x_tim.o(.text)
    TIM_OC4FastConfig                        0x08001ae7   Thumb Code    26  stm32f10x_tim.o(.text)
    TIM_ClearOC1Ref                          0x08001b01   Thumb Code    18  stm32f10x_tim.o(.text)
    TIM_ClearOC2Ref                          0x08001b13   Thumb Code    24  stm32f10x_tim.o(.text)
    TIM_ClearOC3Ref                          0x08001b2b   Thumb Code    18  stm32f10x_tim.o(.text)
    TIM_ClearOC4Ref                          0x08001b3d   Thumb Code    24  stm32f10x_tim.o(.text)
    TIM_OC1PolarityConfig                    0x08001b55   Thumb Code    18  stm32f10x_tim.o(.text)
    TIM_OC1NPolarityConfig                   0x08001b67   Thumb Code    18  stm32f10x_tim.o(.text)
    TIM_OC2PolarityConfig                    0x08001b79   Thumb Code    26  stm32f10x_tim.o(.text)
    TIM_OC2NPolarityConfig                   0x08001b93   Thumb Code    26  stm32f10x_tim.o(.text)
    TIM_OC3PolarityConfig                    0x08001bad   Thumb Code    26  stm32f10x_tim.o(.text)
    TIM_OC3NPolarityConfig                   0x08001bc7   Thumb Code    26  stm32f10x_tim.o(.text)
    TIM_OC4PolarityConfig                    0x08001be1   Thumb Code    26  stm32f10x_tim.o(.text)
    TIM_CCxCmd                               0x08001bfb   Thumb Code    30  stm32f10x_tim.o(.text)
    TIM_CCxNCmd                              0x08001c19   Thumb Code    30  stm32f10x_tim.o(.text)
    TIM_SelectOCxM                           0x08001c37   Thumb Code    82  stm32f10x_tim.o(.text)
    TIM_UpdateDisableConfig                  0x08001c89   Thumb Code    24  stm32f10x_tim.o(.text)
    TIM_UpdateRequestConfig                  0x08001ca1   Thumb Code    24  stm32f10x_tim.o(.text)
    TIM_SelectHallSensor                     0x08001cb9   Thumb Code    24  stm32f10x_tim.o(.text)
    TIM_SelectOnePulseMode                   0x08001cd1   Thumb Code    18  stm32f10x_tim.o(.text)
    TIM_SelectOutputTrigger                  0x08001ce3   Thumb Code    18  stm32f10x_tim.o(.text)
    TIM_SelectSlaveMode                      0x08001cf5   Thumb Code    18  stm32f10x_tim.o(.text)
    TIM_SelectMasterSlaveMode                0x08001d07   Thumb Code    18  stm32f10x_tim.o(.text)
    TIM_SetCounter                           0x08001d19   Thumb Code     4  stm32f10x_tim.o(.text)
    TIM_SetAutoreload                        0x08001d1d   Thumb Code     4  stm32f10x_tim.o(.text)
    TIM_SetCompare1                          0x08001d21   Thumb Code     4  stm32f10x_tim.o(.text)
    TIM_SetCompare2                          0x08001d25   Thumb Code     4  stm32f10x_tim.o(.text)
    TIM_SetCompare3                          0x08001d29   Thumb Code     4  stm32f10x_tim.o(.text)
    TIM_SetCompare4                          0x08001d2d   Thumb Code     6  stm32f10x_tim.o(.text)
    TIM_SetClockDivision                     0x08001d33   Thumb Code    18  stm32f10x_tim.o(.text)
    TIM_GetCapture1                          0x08001d45   Thumb Code     6  stm32f10x_tim.o(.text)
    TIM_GetCapture2                          0x08001d4b   Thumb Code     6  stm32f10x_tim.o(.text)
    TIM_GetCapture3                          0x08001d51   Thumb Code     6  stm32f10x_tim.o(.text)
    TIM_GetCapture4                          0x08001d57   Thumb Code     8  stm32f10x_tim.o(.text)
    TIM_GetCounter                           0x08001d5f   Thumb Code     6  stm32f10x_tim.o(.text)
    TIM_GetPrescaler                         0x08001d65   Thumb Code     6  stm32f10x_tim.o(.text)
    TIM_GetFlagStatus                        0x08001d6b   Thumb Code    18  stm32f10x_tim.o(.text)
    TIM_ClearFlag                            0x08001d7d   Thumb Code     6  stm32f10x_tim.o(.text)
    TIM_GetITStatus                          0x08001d83   Thumb Code    34  stm32f10x_tim.o(.text)
    TIM_ClearITPendingBit                    0x08001da5   Thumb Code     6  stm32f10x_tim.o(.text)
    USART_DeInit                             0x08001dad   Thumb Code   134  stm32f10x_usart.o(.text)
    USART_Init                               0x08001e33   Thumb Code   210  stm32f10x_usart.o(.text)
    USART_StructInit                         0x08001f05   Thumb Code    24  stm32f10x_usart.o(.text)
    USART_ClockInit                          0x08001f1d   Thumb Code    34  stm32f10x_usart.o(.text)
    USART_ClockStructInit                    0x08001f3f   Thumb Code    12  stm32f10x_usart.o(.text)
    USART_Cmd                                0x08001f4b   Thumb Code    24  stm32f10x_usart.o(.text)
    USART_ITConfig                           0x08001f63   Thumb Code    74  stm32f10x_usart.o(.text)
    USART_DMACmd                             0x08001fad   Thumb Code    18  stm32f10x_usart.o(.text)
    USART_SetAddress                         0x08001fbf   Thumb Code    18  stm32f10x_usart.o(.text)
    USART_WakeUpConfig                       0x08001fd1   Thumb Code    18  stm32f10x_usart.o(.text)
    USART_ReceiverWakeUpCmd                  0x08001fe3   Thumb Code    24  stm32f10x_usart.o(.text)
    USART_LINBreakDetectLengthConfig         0x08001ffb   Thumb Code    18  stm32f10x_usart.o(.text)
    USART_LINCmd                             0x0800200d   Thumb Code    24  stm32f10x_usart.o(.text)
    USART_SendData                           0x08002025   Thumb Code     8  stm32f10x_usart.o(.text)
    USART_ReceiveData                        0x0800202d   Thumb Code    10  stm32f10x_usart.o(.text)
    USART_SendBreak                          0x08002037   Thumb Code    10  stm32f10x_usart.o(.text)
    USART_SetGuardTime                       0x08002041   Thumb Code    16  stm32f10x_usart.o(.text)
    USART_SetPrescaler                       0x08002051   Thumb Code    16  stm32f10x_usart.o(.text)
    USART_SmartCardCmd                       0x08002061   Thumb Code    24  stm32f10x_usart.o(.text)
    USART_SmartCardNACKCmd                   0x08002079   Thumb Code    24  stm32f10x_usart.o(.text)
    USART_HalfDuplexCmd                      0x08002091   Thumb Code    24  stm32f10x_usart.o(.text)
    USART_OverSampling8Cmd                   0x080020a9   Thumb Code    22  stm32f10x_usart.o(.text)
    USART_OneBitMethodCmd                    0x080020bf   Thumb Code    24  stm32f10x_usart.o(.text)
    USART_IrDAConfig                         0x080020d7   Thumb Code    18  stm32f10x_usart.o(.text)
    USART_IrDACmd                            0x080020e9   Thumb Code    24  stm32f10x_usart.o(.text)
    USART_GetFlagStatus                      0x08002101   Thumb Code    26  stm32f10x_usart.o(.text)
    USART_ClearFlag                          0x0800211b   Thumb Code    18  stm32f10x_usart.o(.text)
    USART_GetITStatus                        0x0800212d   Thumb Code    84  stm32f10x_usart.o(.text)
    USART_ClearITPendingBit                  0x08002181   Thumb Code    52  stm32f10x_usart.o(.text)
    delay_init                               0x080021b5   Thumb Code    50  delay.o(.text)
    delay_us                                 0x080021e7   Thumb Code    72  delay.o(.text)
    delay_ms                                 0x0800222f   Thumb Code    72  delay.o(.text)
    usmart_sys_cmd_exe                       0x08002289   Thumb Code   596  usmart.o(.text)
    usmart_reset_runtime                     0x080024dd   Thumb Code    34  usmart.o(.text)
    usmart_get_runtime                       0x080024ff   Thumb Code    58  usmart.o(.text)
    TIM2_IRQHandler                          0x08002539   Thumb Code    52  usmart.o(.text)
    Timer2_Init                              0x0800256d   Thumb Code   724  usmart.o(.text)
    usmart_init                              0x08002841   Thumb Code    36  usmart.o(.text)
    usmart_cmd_rec                           0x08002865   Thumb Code   170  usmart.o(.text)
    usmart_exe                               0x0800290f   Thumb Code   632  usmart.o(.text)
    usmart_scan                              0x08002b87   Thumb Code   110  usmart.o(.text)
    Usmart_Debug_Fun                         0x08002bf5   Thumb Code   354  usmart.o(.text)
    read_addr                                0x08002d57   Thumb Code     6  usmart.o(.text)
    write_addr                               0x08002d5d   Thumb Code     4  usmart.o(.text)
    Mode_Set                                 0x08002d65   Thumb Code    38  usmart_config.o(.text)
    usmart_strcmp                            0x08002dad   Thumb Code    34  usmart_str.o(.text)
    usmart_strcopy                           0x08002dcf   Thumb Code    22  usmart_str.o(.text)
    usmart_strlen                            0x08002de5   Thumb Code    24  usmart_str.o(.text)
    usmart_pow                               0x08002dfd   Thumb Code    22  usmart_str.o(.text)
    usmart_str2num                           0x08002e13   Thumb Code   202  usmart_str.o(.text)
    usmart_get_cmdname                       0x08002edd   Thumb Code    54  usmart_str.o(.text)
    usmart_search_nextc                      0x08002f13   Thumb Code    22  usmart_str.o(.text)
    usmart_get_fname                         0x08002f29   Thumb Code   440  usmart_str.o(.text)
    usmart_get_aparm                         0x080030e1   Thumb Code   200  usmart_str.o(.text)
    usmart_get_parmpos                       0x080031a9   Thumb Code    26  usmart_str.o(.text)
    usmart_get_fparam                        0x080031c3   Thumb Code   262  usmart_str.o(.text)
    Reset_Handler                            0x080032d5   Thumb Code     8  startup_stm32f10x_hd.o(.text)
    ADC1_2_IRQHandler                        0x080032ef   Thumb Code     0  startup_stm32f10x_hd.o(.text)
    ADC3_IRQHandler                          0x080032ef   Thumb Code     0  startup_stm32f10x_hd.o(.text)
    CAN1_RX1_IRQHandler                      0x080032ef   Thumb Code     0  startup_stm32f10x_hd.o(.text)
    CAN1_SCE_IRQHandler                      0x080032ef   Thumb Code     0  startup_stm32f10x_hd.o(.text)
    DMA1_Channel1_IRQHandler                 0x080032ef   Thumb Code     0  startup_stm32f10x_hd.o(.text)
    DMA1_Channel2_IRQHandler                 0x080032ef   Thumb Code     0  startup_stm32f10x_hd.o(.text)
    DMA1_Channel3_IRQHandler                 0x080032ef   Thumb Code     0  startup_stm32f10x_hd.o(.text)
    DMA1_Channel4_IRQHandler                 0x080032ef   Thumb Code     0  startup_stm32f10x_hd.o(.text)
    DMA1_Channel5_IRQHandler                 0x080032ef   Thumb Code     0  startup_stm32f10x_hd.o(.text)
    DMA1_Channel6_IRQHandler                 0x080032ef   Thumb Code     0  startup_stm32f10x_hd.o(.text)
    DMA1_Channel7_IRQHandler                 0x080032ef   Thumb Code     0  startup_stm32f10x_hd.o(.text)
    DMA2_Channel1_IRQHandler                 0x080032ef   Thumb Code     0  startup_stm32f10x_hd.o(.text)
    DMA2_Channel2_IRQHandler                 0x080032ef   Thumb Code     0  startup_stm32f10x_hd.o(.text)
    DMA2_Channel3_IRQHandler                 0x080032ef   Thumb Code     0  startup_stm32f10x_hd.o(.text)
    DMA2_Channel4_5_IRQHandler               0x080032ef   Thumb Code     0  startup_stm32f10x_hd.o(.text)
    EXTI1_IRQHandler                         0x080032ef   Thumb Code     0  startup_stm32f10x_hd.o(.text)
    EXTI2_IRQHandler                         0x080032ef   Thumb Code     0  startup_stm32f10x_hd.o(.text)
    EXTI3_IRQHandler                         0x080032ef   Thumb Code     0  startup_stm32f10x_hd.o(.text)
    EXTI4_IRQHandler                         0x080032ef   Thumb Code     0  startup_stm32f10x_hd.o(.text)
    EXTI9_5_IRQHandler                       0x080032ef   Thumb Code     0  startup_stm32f10x_hd.o(.text)
    FLASH_IRQHandler                         0x080032ef   Thumb Code     0  startup_stm32f10x_hd.o(.text)
    FSMC_IRQHandler                          0x080032ef   Thumb Code     0  startup_stm32f10x_hd.o(.text)
    I2C1_ER_IRQHandler                       0x080032ef   Thumb Code     0  startup_stm32f10x_hd.o(.text)
    I2C1_EV_IRQHandler                       0x080032ef   Thumb Code     0  startup_stm32f10x_hd.o(.text)
    I2C2_ER_IRQHandler                       0x080032ef   Thumb Code     0  startup_stm32f10x_hd.o(.text)
    I2C2_EV_IRQHandler                       0x080032ef   Thumb Code     0  startup_stm32f10x_hd.o(.text)
    PVD_IRQHandler                           0x080032ef   Thumb Code     0  startup_stm32f10x_hd.o(.text)
    RCC_IRQHandler                           0x080032ef   Thumb Code     0  startup_stm32f10x_hd.o(.text)
    RTCAlarm_IRQHandler                      0x080032ef   Thumb Code     0  startup_stm32f10x_hd.o(.text)
    RTC_IRQHandler                           0x080032ef   Thumb Code     0  startup_stm32f10x_hd.o(.text)
    SDIO_IRQHandler                          0x080032ef   Thumb Code     0  startup_stm32f10x_hd.o(.text)
    SPI1_IRQHandler                          0x080032ef   Thumb Code     0  startup_stm32f10x_hd.o(.text)
    SPI2_IRQHandler                          0x080032ef   Thumb Code     0  startup_stm32f10x_hd.o(.text)
    SPI3_IRQHandler                          0x080032ef   Thumb Code     0  startup_stm32f10x_hd.o(.text)
    TAMPER_IRQHandler                        0x080032ef   Thumb Code     0  startup_stm32f10x_hd.o(.text)
    TIM1_BRK_IRQHandler                      0x080032ef   Thumb Code     0  startup_stm32f10x_hd.o(.text)
    TIM1_CC_IRQHandler                       0x080032ef   Thumb Code     0  startup_stm32f10x_hd.o(.text)
    TIM1_TRG_COM_IRQHandler                  0x080032ef   Thumb Code     0  startup_stm32f10x_hd.o(.text)
    TIM1_UP_IRQHandler                       0x080032ef   Thumb Code     0  startup_stm32f10x_hd.o(.text)
    TIM7_IRQHandler                          0x080032ef   Thumb Code     0  startup_stm32f10x_hd.o(.text)
    TIM8_BRK_IRQHandler                      0x080032ef   Thumb Code     0  startup_stm32f10x_hd.o(.text)
    TIM8_CC_IRQHandler                       0x080032ef   Thumb Code     0  startup_stm32f10x_hd.o(.text)
    TIM8_TRG_COM_IRQHandler                  0x080032ef   Thumb Code     0  startup_stm32f10x_hd.o(.text)
    TIM8_UP_IRQHandler                       0x080032ef   Thumb Code     0  startup_stm32f10x_hd.o(.text)
    USBWakeUp_IRQHandler                     0x080032ef   Thumb Code     0  startup_stm32f10x_hd.o(.text)
    USB_HP_CAN1_TX_IRQHandler                0x080032ef   Thumb Code     0  startup_stm32f10x_hd.o(.text)
    USB_LP_CAN1_RX0_IRQHandler               0x080032ef   Thumb Code     0  startup_stm32f10x_hd.o(.text)
    WWDG_IRQHandler                          0x080032ef   Thumb Code     0  startup_stm32f10x_hd.o(.text)
    __user_initial_stackheap                 0x080032f1   Thumb Code     0  startup_stm32f10x_hd.o(.text)
    Dac_Init                                 0x08003315   Thumb Code    94  dac.o(.text)
    DAC_Set_Vol_Ref                          0x08003373   Thumb Code    86  dac.o(.text)
    DAC_Set_Vol                              0x080033c9   Thumb Code   280  dac.o(.text)
    Self_Test_DAC_line                       0x080034e1   Thumb Code   274  dac.o(.text)
    GPIO_Clock_Enable                        0x0800363d   Thumb Code    84  global.o(.text)
    GPIO_LCD_CFG                             0x08003691   Thumb Code    32  global.o(.text)
    GPIO_IIC_CFG                             0x080036b1   Thumb Code    38  global.o(.text)
    GPIO_Drive_CFG                           0x080036d7   Thumb Code   138  global.o(.text)
    GPIO_AD7190_CFG                          0x08003761   Thumb Code    64  global.o(.text)
    GPIO_Sensor_CFG                          0x080037a1   Thumb Code    68  global.o(.text)
    GPIO_Beep_CFG                            0x080037e5   Thumb Code    32  global.o(.text)
    GPIO_DSS_CFG                             0x08003805   Thumb Code    44  global.o(.text)
    GPIO_Analog_Switch_CFG                   0x08003831   Thumb Code   120  global.o(.text)
    GPIO_Motor_CFG                           0x080038a9   Thumb Code    42  global.o(.text)
    GPIO_Voltage_Gain_CFG                    0x080038d3   Thumb Code    32  global.o(.text)
    GPIO_Voltage_Source_CFG                  0x080038f3   Thumb Code    64  global.o(.text)
    GPIO_AD7176_CFG                          0x08003933   Thumb Code    86  global.o(.text)
    GPIO_Magnet_PWR_CFG                      0x08003989   Thumb Code    32  global.o(.text)
    GPIO_CAP_Test_CFG                        0x080039a9   Thumb Code    36  global.o(.text)
    ALL_GPIO_CFG                             0x080039cd   Thumb Code    40  global.o(.text)
    AT24CXX_ReadOneByte                      0x08003a15   Thumb Code    84  24cxx.o(.text)
    AT24CXX_WriteOneByte                     0x08003a69   Thumb Code    76  24cxx.o(.text)
    AT24CXX_WriteLenByte                     0x08003ab5   Thumb Code    42  24cxx.o(.text)
    AT24CXX_ReadLenByte                      0x08003adf   Thumb Code    44  24cxx.o(.text)
    AT24CXX_Check                            0x08003b0b   Thumb Code    46  24cxx.o(.text)
    AT24CXX_Read                             0x08003b39   Thumb Code    34  24cxx.o(.text)
    AT24CXX_Write                            0x08003b5b   Thumb Code    36  24cxx.o(.text)
    Write_double_data                        0x08003b7f   Thumb Code    44  24cxx.o(.text)
    read_double_data                         0x08003bab   Thumb Code    90  24cxx.o(.text)
    Valve_Drive                              0x08003c11   Thumb Code   494  sup_fun.o(.text)
    Read_Sensor_Status                       0x08003dff   Thumb Code   332  sup_fun.o(.text)
    Wait_Sensor_Signal                       0x08003f4b   Thumb Code    62  sup_fun.o(.text)
    Relay_Drive                              0x08003fd3   Thumb Code   300  sup_fun.o(.text)
    beep                                     0x080040ff   Thumb Code    50  sup_fun.o(.text)
    MOVE_debug_Fun                           0x08004131   Thumb Code   372  sup_fun.o(.text)
    RG_Light_Set                             0x080042a5   Thumb Code     2  sup_fun.o(.text)
    Display_Test_Result                      0x080042a7   Thumb Code   870  sup_fun.o(.text)
    Drive_Baipanji                           0x0800460d   Thumb Code    28  sup_fun.o(.text)
    LED_Light_Check                          0x08004629   Thumb Code    58  sup_fun.o(.text)
    Debug_Banpanji                           0x08004663   Thumb Code   148  sup_fun.o(.text)
    AD_Sample_Rate_Set                       0x08004779   Thumb Code     6  ad7176.o(.text)
    Read_AD7176_Voltage                      0x08004915   Thumb Code   116  ad7176.o(.text)
    Read_AD7176_Voltage_mV                   0x08004989   Thumb Code    22  ad7176.o(.text)
    Read_AD7176_Average_Voltage_mV           0x0800499f   Thumb Code   246  ad7176.o(.text)
    Read_AD7176_Voltage_mV_Auto              0x08004a95   Thumb Code   272  ad7176.o(.text)
    Initialize_AD7176                        0x08004ba5   Thumb Code   154  ad7176.o(.text)
    STM32_Software_Reset_Hander              0x08004c3f   Thumb Code    46  ad7176.o(.text)
    MCUISP_Hander                            0x08004c6d   Thumb Code    22  ad7176.o(.text)
    SwitchBoardDisconnect_COMA               0x08004cc1   Thumb Code    56  analog_switch.o(.text)
    SwitchBoardDisconnect_COMB               0x08004cf9   Thumb Code    58  analog_switch.o(.text)
    SwitchBoardDisconnect_COMC               0x08004d33   Thumb Code    56  analog_switch.o(.text)
    SwitchBoardDisconnect_COMD               0x08004d6b   Thumb Code    54  analog_switch.o(.text)
    SwitchBoardClose_All_Point               0x08004da1   Thumb Code    26  analog_switch.o(.text)
    SwitchBoardOpen_Single_Point             0x08004dbb   Thumb Code   236  analog_switch.o(.text)
    MainBoard_Close_All_Point                0x08004ea7   Thumb Code    50  analog_switch.o(.text)
    MainBoard_Open_Single_Point              0x08004ed9   Thumb Code   416  analog_switch.o(.text)
    Open_Single_Point                        0x08005079   Thumb Code   132  analog_switch.o(.text)
    Close_All_Point                          0x080050fd   Thumb Code    48  analog_switch.o(.text)
    Open_Two_Point                           0x0800512d   Thumb Code    38  analog_switch.o(.text)
    Open_Three_Point                         0x08005153   Thumb Code    50  analog_switch.o(.text)
    Open_Four_Point                          0x08005185   Thumb Code    62  analog_switch.o(.text)
    Clear_buffer                             0x080051d9   Thumb Code    28  lcd3033.o(.text)
    writeir                                  0x080051f5   Thumb Code   152  lcd3033.o(.text)
    writeddr                                 0x0800528d   Thumb Code   124  lcd3033.o(.text)
    lcdputchar                               0x08005309   Thumb Code    70  lcd3033.o(.text)
    lcdpos                                   0x0800534f   Thumb Code    64  lcd3033.o(.text)
    lcdreset                                 0x0800538f   Thumb Code    76  lcd3033.o(.text)
    writestring                              0x080053db   Thumb Code    22  lcd3033.o(.text)
    cyc4or3set                               0x080053f1   Thumb Code    14  lcd3033.o(.text)
    cyc4or3run                               0x080053ff   Thumb Code   102  lcd3033.o(.text)
    Clear_Screen                             0x08005465   Thumb Code    20  lcd3033.o(.text)
    imageclear                               0x08005479   Thumb Code    94  lcd3033.o(.text)
    imagedraw                                0x080054d7   Thumb Code   122  lcd3033.o(.text)
    lcd_printf                               0x08005551   Thumb Code    36  lcd3033.o(.text)
    Set_Reverse                              0x08005575   Thumb Code   182  lcd3033.o(.text)
    I2C0_Start                               0x08005653   Thumb Code    70  ad5933.o(.text)
    I2C0_Stop                                0x08005699   Thumb Code    66  ad5933.o(.text)
    I2C0_NAck                                0x080056db   Thumb Code    70  ad5933.o(.text)
    I2C0_Ack                                 0x08005721   Thumb Code    70  ad5933.o(.text)
    I2C0_Wait_Ack                            0x08005767   Thumb Code   102  ad5933.o(.text)
    I2C0_Send_Ack                            0x080057cd   Thumb Code    72  ad5933.o(.text)
    I2C0_Send_Byte                           0x08005815   Thumb Code   106  ad5933.o(.text)
    I2C0_Read_Byte                           0x0800587f   Thumb Code   100  ad5933.o(.text)
    LCR_Test                                 0x08005bef   Thumb Code   376  ad5933.o(.text)
    AD5933_Initalize                         0x08005f0d   Thumb Code   276  ad5933.o(.text)
    Init_TIM3                                0x08006039   Thumb Code   220  fre.o(.text)
    TIM3_IRQHandler                          0x08006115   Thumb Code    32  fre.o(.text)
    Init_TIM5                                0x08006135   Thumb Code   108  fre.o(.text)
    TIM5_IRQHandler                          0x080061a1   Thumb Code    62  fre.o(.text)
    Get_Pulse_Fre                            0x080061df   Thumb Code   114  fre.o(.text)
    Get_Color_Fre                            0x08006251   Thumb Code   182  fre.o(.text)
    Init_Fre_Test                            0x08006307   Thumb Code     2  fre.o(.text)
    IIC_Start                                0x08006345   Thumb Code    64  myiic.o(.text)
    IIC_Stop                                 0x08006385   Thumb Code    66  myiic.o(.text)
    IIC_Wait_Ack                             0x080063c7   Thumb Code   102  myiic.o(.text)
    IIC_Ack                                  0x0800642d   Thumb Code    70  myiic.o(.text)
    IIC_NAck                                 0x08006473   Thumb Code    70  myiic.o(.text)
    IIC_Send_Byte                            0x080064b9   Thumb Code   104  myiic.o(.text)
    IIC_Read_Byte                            0x08006521   Thumb Code   100  myiic.o(.text)
    Net_IIC_Init                             0x080065a5   Thumb Code    64  net_iic.o(.text)
    Idle_IIC_BUS                             0x080065e5   Thumb Code    46  net_iic.o(.text)
    Net_IIC_Start                            0x08006613   Thumb Code    64  net_iic.o(.text)
    Net_IIC_Stop                             0x08006653   Thumb Code    62  net_iic.o(.text)
    Net_IIC_Wait_Ack                         0x08006691   Thumb Code    94  net_iic.o(.text)
    Net_IIC_Ack                              0x080066ef   Thumb Code    66  net_iic.o(.text)
    Net_IIC_NAck                             0x08006731   Thumb Code    66  net_iic.o(.text)
    Net_IIC_Send_Byte                        0x08006773   Thumb Code   100  net_iic.o(.text)
    Net_IIC_Read_Byte                        0x080067d7   Thumb Code    98  net_iic.o(.text)
    Read_One_Byte_Data                       0x08006839   Thumb Code    92  net_iic.o(.text)
    Read_NByte_Data                          0x08006895   Thumb Code   128  net_iic.o(.text)
    Write_OneByteToDevice                    0x08006915   Thumb Code    80  net_iic.o(.text)
    Write_NByteDataToDevice                  0x08006965   Thumb Code   122  net_iic.o(.text)
    Read_OneByteFromDevice                   0x080069df   Thumb Code    92  net_iic.o(.text)
    Read_NByteFromDevice                     0x08006a3b   Thumb Code   126  net_iic.o(.text)
    _sys_exit                                0x08006ab9   Thumb Code     6  usart.o(.text)
    fputc                                    0x08006abf   Thumb Code    16  usart.o(.text)
    COM_TransString                          0x08006acf   Thumb Code    40  usart.o(.text)
    Uart_Putchar                             0x08006af7   Thumb Code    28  usart.o(.text)
    Uart_Prinf_Hex                           0x08006b13   Thumb Code    62  usart.o(.text)
    Uart_printf                              0x08006b51   Thumb Code    42  usart.o(.text)
    _Uart_printf                             0x08006b7b   Thumb Code    58  usart.o(.text)
    Get_USART_buffer                         0x08006bb5   Thumb Code   442  usart.o(.text)
    _Get_USART_buffer                        0x08006d6f   Thumb Code   290  usart.o(.text)
    RESET_UART                               0x08006e91   Thumb Code   106  usart.o(.text)
    Read_USART_buffer                        0x08006efb   Thumb Code   306  usart.o(.text)
    uart1_init                               0x08007065   Thumb Code   274  usart1.o(.text)
    USART1_IRQHandler                        0x08007177   Thumb Code   138  usart1.o(.text)
    uart2_init                               0x08007219   Thumb Code   306  usart2.o(.text)
    USART2_IRQHandler                        0x0800734b   Thumb Code   136  usart2.o(.text)
    uart3_init                               0x080073f1   Thumb Code   326  usart3.o(.text)
    USART3_IRQHandler                        0x08007537   Thumb Code   136  usart3.o(.text)
    uart4_init                               0x080075d9   Thumb Code   294  uart4.o(.text)
    UART4_IRQHandler                         0x080076ff   Thumb Code   114  uart4.o(.text)
    uart5_init                               0x08007785   Thumb Code   178  uart5.o(.text)
    UART5_IRQHandler                         0x08007837   Thumb Code   120  uart5.o(.text)
    InitUartBps                              0x080078c9   Thumb Code   194  main.o(.text)
    Get_Scan_Result                          0x0800798b   Thumb Code   102  main.o(.text)
    Test_Up_Down_Move                        0x080079f1   Thumb Code   230  main.o(.text)
    Check_Test_Condition                     0x08007ad7   Thumb Code   248  main.o(.text)
    System_Start                             0x08007bcf   Thumb Code   174  main.o(.text)
    main                                     0x08007c7d   Thumb Code   274  main.o(.text)
    NMI_Handler                              0x08007db1   Thumb Code     2  stm32f10x_it.o(.text)
    HardFault_Handler                        0x08007db3   Thumb Code     4  stm32f10x_it.o(.text)
    MemManage_Handler                        0x08007db7   Thumb Code     4  stm32f10x_it.o(.text)
    BusFault_Handler                         0x08007dbb   Thumb Code     4  stm32f10x_it.o(.text)
    UsageFault_Handler                       0x08007dbf   Thumb Code     4  stm32f10x_it.o(.text)
    SVC_Handler                              0x08007dc3   Thumb Code     2  stm32f10x_it.o(.text)
    DebugMon_Handler                         0x08007dc5   Thumb Code     2  stm32f10x_it.o(.text)
    PendSV_Handler                           0x08007dc7   Thumb Code     2  stm32f10x_it.o(.text)
    SysTick_Handler                          0x08007dc9   Thumb Code     2  stm32f10x_it.o(.text)
    SystemInit                               0x08007eab   Thumb Code    78  system_stm32f10x.o(.text)
    SystemCoreClockUpdate                    0x08007ef9   Thumb Code   142  system_stm32f10x.o(.text)
    Average_Fun                              0x08007fad   Thumb Code   184  other.o(.text)
    resetMCU                                 0x08008065   Thumb Code   150  other.o(.text)
    Safe_Protect_Trigger_Gas                 0x080080fb   Thumb Code    94  other.o(.text)
    startkeywait                             0x08008159   Thumb Code   112  other.o(.text)
    Get_start_key_val                        0x080081c9   Thumb Code   254  other.o(.text)
    getstarttime                             0x080082c7   Thumb Code    82  other.o(.text)
    gettestmode                              0x08008319   Thumb Code   482  other.o(.text)
    step_test_mode_get_key                   0x080084fb   Thumb Code    42  other.o(.text)
    GetKey_Status                            0x08008525   Thumb Code   272  other.o(.text)
    Getkey_Cursor                            0x08008635   Thumb Code   354  other.o(.text)
    Choice_Menu                              0x080087a5   Thumb Code   172  menu.o(.text)
    Choice_Menu_Num                          0x08008851   Thumb Code   188  menu.o(.text)
    Password_Input                           0x0800890d   Thumb Code   226  menu.o(.text)
    char_Check                               0x080089ef   Thumb Code    82  menu.o(.text)
    String_Set_Fun                           0x08008a41   Thumb Code   274  menu.o(.text)
    Menu_Click                               0x08008b53   Thumb Code   588  menu.o(.text)
    Menu_List_Fun                            0x08008d9f   Thumb Code    64  menu.o(.text)
    System_Parameter_Set                     0x08008ddf   Thumb Code    18  menu.o(.text)
    Set_Scan_Result                          0x08008e01   Thumb Code    26  barcode.o(.text)
    Get_Scan_Mode                            0x08008e1b   Thumb Code     6  barcode.o(.text)
    Check_Hand_Scan                          0x08008e21   Thumb Code    54  barcode.o(.text)
    ZDT_Upper_Cmd_Check                      0x08008e57   Thumb Code    94  barcode.o(.text)
    Read_Barcode_Format_Configuration        0x08008f4d   Thumb Code    74  barcode.o(.text)
    Read_Barcode_Reader_Configuration        0x08008f97   Thumb Code   250  barcode.o(.text)
    Read_Scan_Configration                   0x08009091   Thumb Code    40  barcode.o(.text)
    BarcodeReaderTrigger                     0x0800918f   Thumb Code   500  barcode.o(.text)
    Software_Trigger_Scan                    0x08009383   Thumb Code   166  barcode.o(.text)
    Scan_Push_Privious_Or_Next               0x08009429   Thumb Code    68  barcode.o(.text)
    Scan_Time_Set                            0x0800946d   Thumb Code    70  barcode.o(.text)
    BarcodeMode_Set                          0x080094b3   Thumb Code    62  barcode.o(.text)
    BarcodeReader_Set                        0x080094f1   Thumb Code    58  barcode.o(.text)
    BarcodeReaderBauds_Set                   0x0800952b   Thumb Code   150  barcode.o(.text)
    BarcodeCheckEnable_Set                   0x080095c1   Thumb Code    70  barcode.o(.text)
    BarcodeLength_Set                        0x08009607   Thumb Code   114  barcode.o(.text)
    BarcodeFormat_Set                        0x08009679   Thumb Code    78  barcode.o(.text)
    BarcodeReaderTriggerTest                 0x080096c7   Thumb Code   542  barcode.o(.text)
    Scan_Set                                 0x080098e5   Thumb Code    52  barcode.o(.text)
    Self_Check_Fun                           0x0800995d   Thumb Code  1960  debug.o(.text)
    DebugMode                                0x0800a105   Thumb Code    18  debug.o(.text)
    Get_Take_OFF_Enable_bit                  0x0800a195   Thumb Code    26  hold_data.o(.text)
    Get_PASS_Row_Num                         0x0800a1af   Thumb Code    28  hold_data.o(.text)
    Save_Hold_Reg_data                       0x0800a1cb   Thumb Code   150  hold_data.o(.text)
    Read_Hold_Reg_data                       0x0800a261   Thumb Code   288  hold_data.o(.text)
    List_Auto_Test_Fun                       0x0800a395   Thumb Code   288  list_test.o(.text)
    List_Step_Test_Fun                       0x0800a4b5   Thumb Code   176  list_test.o(.text)
    InitTestConfig                           0x0800a59d   Thumb Code    52  test_config.o(.text)
    Get_Currennt_Type_CNT                    0x0800a5d1   Thumb Code   990  test_config.o(.text)
    StringCheck                              0x0800a9b5   Thumb Code     2  eth_config.o(.text)
    Get_ETH_ip_Addr                          0x0800a9b7   Thumb Code    26  eth_config.o(.text)
    IP4_ADDR                                 0x0800a9d1   Thumb Code    14  eth_config.o(.text)
    CheckIPAdddr                             0x0800a9df   Thumb Code   104  eth_config.o(.text)
    displayETHPar                            0x0800aa47   Thumb Code    98  eth_config.o(.text)
    Read_NET_ip_Address                      0x0800aaa9   Thumb Code   104  eth_config.o(.text)
    Read_NET_netmask                         0x0800ab11   Thumb Code    98  eth_config.o(.text)
    Read_NET_GATEWAY                         0x0800ab73   Thumb Code   100  eth_config.o(.text)
    Read_NET_Mode                            0x0800abd7   Thumb Code   148  eth_config.o(.text)
    Net_Connect_Test                         0x0800ac6b   Thumb Code    98  eth_config.o(.text)
    Read_NET_PORT_Number                     0x0800accd   Thumb Code   178  eth_config.o(.text)
    Ip_Set_fun                               0x0800ad7f   Thumb Code   590  eth_config.o(.text)
    Read_Parameter_From_ETHModulea           0x0800afcd   Thumb Code   230  eth_config.o(.text)
    Write_Parameter_To_ETHModulea            0x0800b0b3   Thumb Code   760  eth_config.o(.text)
    SET_ParmeterYesOrNO                      0x0800b3ab   Thumb Code    68  eth_config.o(.text)
    Config_ETH_IP                            0x0800b3ef   Thumb Code    54  eth_config.o(.text)
    InitaServerPar                           0x0800b425   Thumb Code   230  eth_config.o(.text)
    ETH_NET_Set                              0x0800b50b   Thumb Code   302  eth_config.o(.text)
    UploadFixtureConfig                      0x0800b7e9   Thumb Code   592  base_config.o(.text)
    Init_Fixture                             0x0800ba39   Thumb Code  1152  base_config.o(.text)
    TEST_Station_Set                         0x0800beb9   Thumb Code   124  base_config.o(.text)
    Get_TEST_Station                         0x0800bf35   Thumb Code    18  base_config.o(.text)
    Block_RES_Check                          0x0800bf91   Thumb Code   134  block_check.o(.text)
    Block_Recognition                        0x0800c017   Thumb Code   358  block_check.o(.text)
    Save_Single_Reg_Value                    0x0800c1c5   Thumb Code   440  reg_config.o(.text)
    Read_Signal_Reg_Value                    0x0800c37d   Thumb Code   348  reg_config.o(.text)
    Display_Total_Rate                       0x0800c4d9   Thumb Code   134  reg_config.o(.text)
    Get_Compile_Time                         0x0800c55f   Thumb Code   242  reg_config.o(.text)
    RevertStartupScreen                      0x0800c651   Thumb Code   170  reg_config.o(.text)
    clear_counter                            0x0800c6fb   Thumb Code    60  reg_config.o(.text)
    Read_System_Name                         0x0800c737   Thumb Code    82  reg_config.o(.text)
    System_Name_Set_Fun                      0x0800c789   Thumb Code     4  reg_config.o(.text)
    Write_ETH_Parameter_To_EEPROM            0x0800c78d   Thumb Code   154  reg_config.o(.text)
    Read_ETH_Parameter_From_EEPROM           0x0800c827   Thumb Code   260  reg_config.o(.text)
    Read_pF_Capacitor_offset                 0x0800c92b   Thumb Code   238  reg_config.o(.text)
    Write_pF_Capacitor_offset                0x0800ca19   Thumb Code   270  reg_config.o(.text)
    Read_All_Reg_Value                       0x0800cb27   Thumb Code   554  reg_config.o(.text)
    Reset_All_Reg_Value                      0x0800cd51   Thumb Code    64  reg_config.o(.text)
    Init_TIM4                                0x0800cda9   Thumb Code   108  sample_notice.o(.text)
    TIM4_IRQHandler                          0x0800ce15   Thumb Code    32  sample_notice.o(.text)
    Init_Smaple_Test_Notice                  0x0800ce35   Thumb Code    16  sample_notice.o(.text)
    Display_Sample_Time                      0x0800ce45   Thumb Code   190  sample_notice.o(.text)
    Sample_Notice_Enable_Set                 0x0800cf03   Thumb Code   108  sample_notice.o(.text)
    Sample_Cycle_Set                         0x0800cf6f   Thumb Code   102  sample_notice.o(.text)
    Sample_Time_Display                      0x0800cfd5   Thumb Code     8  sample_notice.o(.text)
    Smaple_Notice_Set                        0x0800cfdd   Thumb Code    48  sample_notice.o(.text)
    Sample_Notice_Message                    0x0800d00d   Thumb Code   822  sample_notice.o(.text)
    Sample_Notice_Check                      0x0800d343   Thumb Code    98  sample_notice.o(.text)
    Dot_Enable_Set                           0x0800d3e5   Thumb Code    70  dot.o(.text)
    Dot_Time_Set                             0x0800d42b   Thumb Code   108  dot.o(.text)
    Dot_CNT_Enable_Set                       0x0800d497   Thumb Code    72  dot.o(.text)
    Dot_CNT_Set                              0x0800d4df   Thumb Code   108  dot.o(.text)
    Dot_CNT_Clear                            0x0800d54b   Thumb Code    96  dot.o(.text)
    Dot_Pen_Replace_Check                    0x0800d5ab   Thumb Code   312  dot.o(.text)
    Dot_Set                                  0x0800d6e3   Thumb Code   130  dot.o(.text)
    Product_Mark_Dot                         0x0800d765   Thumb Code   634  dot.o(.text)
    GPIO_Initialize_Motor                    0x0800d9ed   Thumb Code    48  motor.o(.text)
    Init_TIM6_PWM                            0x0800da1d   Thumb Code   114  motor.o(.text)
    TIM6_IRQHandler                          0x0800dcc3   Thumb Code   598  motor.o(.text)
    Motor_Move                               0x0800df19   Thumb Code   246  motor.o(.text)
    Motor_Limit_Check                        0x0800e00f   Thumb Code   136  motor.o(.text)
    EXTI15_10_IRQHandler                     0x0800e097   Thumb Code   112  motor.o(.text)
    EXTI0_IRQHandler                         0x0800e107   Thumb Code   108  motor.o(.text)
    Motor_Setup                              0x0800e173   Thumb Code   492  motor.o(.text)
    Dot_Move                                 0x0800e35f   Thumb Code   244  motor.o(.text)
    Initialize_Motor                         0x0800e453   Thumb Code   236  motor.o(.text)
    Set_Motor_Debug_SETUP_Flag               0x0800e53f   Thumb Code     6  motor.o(.text)
    Motor_Dot_Enable_Set                     0x0800e545   Thumb Code   180  motor.o(.text)
    Motor_Speed_Set                          0x0800e5f9   Thumb Code   146  motor.o(.text)
    Motor_Dot_Speed_Set                      0x0800e68b   Thumb Code    14  motor.o(.text)
    Motor_RESET_Speed_Set                    0x0800e699   Thumb Code    14  motor.o(.text)
    Motor_Pos_Set                            0x0800e6a7   Thumb Code   668  motor.o(.text)
    Motor_Dot_Pos_Set                        0x0800e943   Thumb Code    12  motor.o(.text)
    Motor_Standby_Pos_Set                    0x0800e94f   Thumb Code    72  motor.o(.text)
    Motor_Up_Pos_Set                         0x0800e997   Thumb Code    12  motor.o(.text)
    Init_USB_Move_Motor                      0x0800ea09   Thumb Code   228  usb_move.o(.text)
    USB_MOVE                                 0x0800eaed   Thumb Code   162  usb_move.o(.text)
    USB_Move_Display                         0x0800eb8f   Thumb Code    92  usb_move.o(.text)
    USB_Motor_Enable_Set                     0x0800ebeb   Thumb Code   180  usb_move.o(.text)
    USB_SET_Speed_Set                        0x0800ec9f   Thumb Code    14  usb_move.o(.text)
    USB_SET_Pos_Set                          0x0800ecad   Thumb Code    12  usb_move.o(.text)
    USB_RESET_Speed_Set                      0x0800ecb9   Thumb Code    14  usb_move.o(.text)
    USB_Move_Set                             0x0800ecc7   Thumb Code   106  usb_move.o(.text)
    Convert_Big                              0x0800edb9   Thumb Code    12  modbus.o(.text)
    Half_Convert_Big_uint32_t                0x0800edc5   Thumb Code    10  modbus.o(.text)
    FReadCoils                               0x0800edcf   Thumb Code   224  modbus.o(.text)
    FWriteSingleCoil                         0x0800eeaf   Thumb Code   222  modbus.o(.text)
    FReadInputStatusReg                      0x0800ef8d   Thumb Code   222  modbus.o(.text)
    FReadHoldingReg                          0x0800f06b   Thumb Code   240  modbus.o(.text)
    FWriteHoldingReg                         0x0800f15b   Thumb Code   306  modbus.o(.text)
    Communication_Test                       0x0800f28d   Thumb Code     4  modbus.o(.text)
    Read_InputStatus                         0x0800f291   Thumb Code    56  modbus.o(.text)
    Get_LEC_Current_Postion                  0x0800f2c9   Thumb Code    64  modbus.o(.text)
    Protect_Fun                              0x0800f309   Thumb Code   408  modbus.o(.text)
    Check_Coordinate                         0x0800f4a1   Thumb Code   212  modbus.o(.text)
    Running_Position                         0x0800f575   Thumb Code   744  modbus.o(.text)
    XY_Protect_Fun                           0x0800f85d   Thumb Code   410  modbus.o(.text)
    Axis_Running_Position                    0x0800f9f7   Thumb Code   896  modbus.o(.text)
    Modbus_CRC16                             0x0800fd91   Thumb Code    50  crc.o(.text)
    TAKE_OFF_EACT_MOVE                       0x0800fdcd   Thumb Code   142  x_axis.o(.text)
    Take_OFF_Products                        0x0800fe5b   Thumb Code   304  x_axis.o(.text)
    Take_Product_EACT_set                    0x0800ff8b   Thumb Code   132  x_axis.o(.text)
    Init_Take_OFF_EACT                       0x0801000f   Thumb Code   908  x_axis.o(.text)
    Take_Product_Enable_Set                  0x0801039b   Thumb Code    82  x_axis.o(.text)
    Take_Product_Num_Set                     0x080103ed   Thumb Code   130  x_axis.o(.text)
    Take_Product_Position_Set                0x0801046f   Thumb Code   418  x_axis.o(.text)
    Take_Product_EACT_Enable_Set             0x08010611   Thumb Code   316  x_axis.o(.text)
    Take_Product_NG_Enable_Set               0x0801074d   Thumb Code    10  x_axis.o(.text)
    Take_Product_Push_Enable_Set             0x08010757   Thumb Code    10  x_axis.o(.text)
    Take_Product_EACT_Speed_Set              0x08010761   Thumb Code    12  x_axis.o(.text)
    Take_Product_EACT_NG_Num_Set             0x0801076d   Thumb Code    12  x_axis.o(.text)
    Take_Product_EACT_OK_Num_Set             0x08010779   Thumb Code    12  x_axis.o(.text)
    Take_Product_EACT_OK_Postion_Set         0x08010785   Thumb Code    28  x_axis.o(.text)
    Take_Product_EACT_NG_Postion_Set         0x080107a1   Thumb Code    26  x_axis.o(.text)
    Take_Product_EACT_Standby_Postion_Set    0x080107bb   Thumb Code    12  x_axis.o(.text)
    Take_Product_EACT_Product_Postion_Set    0x080107c7   Thumb Code    12  x_axis.o(.text)
    Show_Take_PASS_Product                   0x080107d3   Thumb Code    28  x_axis.o(.text)
    Show_Take_FAIL_Product                   0x080107ef   Thumb Code    28  x_axis.o(.text)
    Up_Down_EACT_set                         0x08010829   Thumb Code   134  y_axis.o(.text)
    Init_Up_Down_EACT                        0x080108af   Thumb Code   638  y_axis.o(.text)
    Up_Down_EACT_Enable_Set                  0x08010b2d   Thumb Code   112  y_axis.o(.text)
    Up_Down_EACT_Speed_Set                   0x08010b9d   Thumb Code   100  y_axis.o(.text)
    Up_Down_EACT_Standy_Set                  0x08010c01   Thumb Code   540  y_axis.o(.text)
    Up_Down_EACT_Push_Set                    0x08010e1d   Thumb Code   344  y_axis.o(.text)
    Up_Down_EACT_MOVE                        0x08010f75   Thumb Code   276  y_axis.o(.text)
    Enable_RES_Test_Analog_Switch            0x08011139   Thumb Code    20  os.o(.text)
    Disable_RES_Test_Analog_Switch           0x0801114d   Thumb Code    20  os.o(.text)
    Vsrc_RES_TEST_SET                        0x08011161   Thumb Code    56  os.o(.text)
    Res_2wire_Test                           0x08011199   Thumb Code   198  os.o(.text)
    Res_4wire_Test                           0x0801125f   Thumb Code   182  os.o(.text)
    Res_2wire_Test_Mohm                      0x08011315   Thumb Code   202  os.o(.text)
    Search_Point_Function                    0x080113df   Thumb Code   242  os.o(.text)
    Self_Check_Ananlog_Switch                0x080114d1   Thumb Code   384  os.o(.text)
    Short_Self_Check                         0x08011651   Thumb Code   382  os.o(.text)
    Ananlog_Switch_debug_fun                 0x080117cf   Thumb Code   190  os.o(.text)
    Type_Isrc_Test_Fun                       0x08011a15   Thumb Code  1412  mr.o(.text)
    Kohm_Test                                0x08011fdd   Thumb Code   258  kohm.o(.text)
    KOhm_RES_Test                            0x080120df   Thumb Code  1020  kohm.o(.text)
    KOhm_RES_TEST_SET                        0x080124db   Thumb Code   144  kohm.o(.text)
    KOhm_RES_TEST_RESET                      0x0801256b   Thumb Code    32  kohm.o(.text)
    Type_Vsrc_Test_Fun                       0x0801258b   Thumb Code   546  kohm.o(.text)
    OS_Open_Relay_SET                        0x08012809   Thumb Code    64  open.o(.text)
    Open_RES_Value_Fun                       0x080128c7   Thumb Code   268  open.o(.text)
    Step_debug_Open                          0x080129d3   Thumb Code   340  open.o(.text)
    Open_Test_Function                       0x08012b27   Thumb Code  1014  open.o(.text)
    Open_Test_Function_V2                    0x08012f1d   Thumb Code   816  open.o(.text)
    OS_Open_Test                             0x0801324d   Thumb Code  1290  open.o(.text)
    Type_OS_Open_Test_Fun                    0x08013757   Thumb Code   314  open.o(.text)
    Short_Gooup_Edit_Check                   0x080138d1   Thumb Code   424  short.o(.text)
    Step_Test_RES                            0x08013b3d   Thumb Code   260  short.o(.text)
    Short_Test_Function                      0x08013c41   Thumb Code  1086  short.o(.text)
    OS_Short_Test                            0x0801407f   Thumb Code  1070  short.o(.text)
    Type_OS_Short_Test_Fun                   0x080144ad   Thumb Code   388  short.o(.text)
    ViewShortGroup                           0x08014631   Thumb Code   292  short.o(.text)
    Diode_Test                               0x080147bd   Thumb Code   892  diode.o(.text)
    Diode_TEST_Relay_SET                     0x08014b39   Thumb Code   190  diode.o(.text)
    Diode_TEST_Relay_RESET                   0x08014bf7   Thumb Code    32  diode.o(.text)
    Type_Diode_Test_Fun                      0x08014c17   Thumb Code   524  diode.o(.text)
    TVS_Diode_TEST_Relay_SET                 0x08014e23   Thumb Code   142  diode.o(.text)
    TVS_Diode_Test                           0x08014f27   Thumb Code  1016  diode.o(.text)
    Type_TVS_Test_Fun                        0x0801531f   Thumb Code   596  diode.o(.text)
    Set_CAP_Test_REF_RES                     0x08015589   Thumb Code   196  uf.o(.text)
    Read_CAP_Value                           0x0801564d   Thumb Code   640  uf.o(.text)
    Max_CAP_Tests                            0x080158cd   Thumb Code  1206  uf.o(.text)
    Type_Cap_Test_Fun                        0x08015d83   Thumb Code   432  uf.o(.text)
    Max_CAP_Self_Check                       0x08015f33   Thumb Code   398  uf.o(.text)
    Max_CAP_Calibration                      0x080160c1   Thumb Code   336  uf.o(.text)
    pF_CAP_Tests                             0x08016329   Thumb Code   868  pf.o(.text)
    Type_pF_Cap_Test_Fun                     0x0801668d   Thumb Code   404  pf.o(.text)
    pF_Capacitor_Calibration                 0x08016821   Thumb Code   494  pf.o(.text)
    pF_Capacitor_Calibration_Fun             0x08016a0f   Thumb Code    88  pf.o(.text)
    Mark_Short_Pin                           0x08016b71   Thumb Code    24  os_study.o(.text)
    Find_Mark_Short_Pin                      0x08016b89   Thumb Code    34  os_study.o(.text)
    View_Short_Group                         0x08016bab   Thumb Code   292  os_study.o(.text)
    Read_OS_Group                            0x08016ccf   Thumb Code   414  os_study.o(.text)
    Hall_TEST_Relay_SET                      0x08016f25   Thumb Code   124  hall.o(.text)
    Hall_TEST_Relay_RESET                    0x08016fa1   Thumb Code    32  hall.o(.text)
    Hall_Test                                0x080170ab   Thumb Code  1024  hall.o(.text)
    Type_Hall_Test_Fun                       0x080174ab   Thumb Code   538  hall.o(.text)
    Volts_TEST_Relay_SET                     0x0801771d   Thumb Code   116  ldo.o(.text)
    DVolts_TEST_Relay_RESET                  0x08017791   Thumb Code    42  ldo.o(.text)
    Type_Volts_Test_Fun                      0x08017bc7   Thumb Code   422  ldo.o(.text)
    Cur_TEST_Relay_SET                       0x08017e29   Thumb Code   108  leakage_i.o(.text)
    Cur_TEST_Relay_RESET                     0x08017e95   Thumb Code    32  leakage_i.o(.text)
    Type_Current_Test_Fun                    0x080181c9   Thumb Code   504  leakage_i.o(.text)
    LED_Forward_Test                         0x0801842f   Thumb Code   662  led.o(.text)
    Read_Clolor_Percentage                   0x080186c5   Thumb Code   152  led.o(.text)
    LED_light_Test                           0x0801875d   Thumb Code   760  led.o(.text)
    LED_Forward_Vol_Color_Test               0x08018a55   Thumb Code   434  led.o(.text)
    LED_Vsrc_TEST_SET                        0x08018c07   Thumb Code   122  led.o(.text)
    LED_Vsrc_TEST_RESET                      0x08018c81   Thumb Code    20  led.o(.text)
    Type_LED_Test_Fun                        0x08018c95   Thumb Code   350  led.o(.text)
    SW_Res_4wire_Test                        0x08018e2d   Thumb Code   298  switch.o(.text)
    Switch_ON_Test                           0x08018f57   Thumb Code  1082  switch.o(.text)
    Switch_OFF_Test                          0x08019391   Thumb Code   848  switch.o(.text)
    SW_Vsrc_RES_TEST_SET                     0x080196e1   Thumb Code   112  switch.o(.text)
    SW_Vsrc_RES_TEST_RESET                   0x08019751   Thumb Code    20  switch.o(.text)
    SW_Enable_RES_Test                       0x08019765   Thumb Code    72  switch.o(.text)
    Type_Switch_Test_Fun                     0x080197ad   Thumb Code  1072  switch.o(.text)
    Type_IC_ID_Test_Fun                      0x08019e1f   Thumb Code   416  id.o(.text)
    Read_IC_ID_Debug                         0x08019fbf   Thumb Code   360  id.o(.text)
    suBUS_reset_CPLD                         0x0801a19d   Thumb Code    28  subus.o(.text)
    SuBus8_proce                             0x0801a1b9   Thumb Code    76  subus.o(.text)
    SuBus12_proce                            0x0801a205   Thumb Code   126  subus.o(.text)
    suBus_Read_Data_Generate                 0x0801a283   Thumb Code    70  subus.o(.text)
    suBus_Write_Data_Generate                0x0801a2c9   Thumb Code   104  subus.o(.text)
    suBus_Read_Reg_Val                       0x0801a331   Thumb Code    54  subus.o(.text)
    suBus_Write_Reg_Val                      0x0801a367   Thumb Code    50  subus.o(.text)
    ReadRegValue                             0x0801a399   Thumb Code    28  subus.o(.text)
    WriteRegValue                            0x0801a3b5   Thumb Code    28  subus.o(.text)
    SbudCondition                            0x0801a3d1   Thumb Code    82  subus.o(.text)
    ChangeRFSwitch                           0x0801a423   Thumb Code    42  subus.o(.text)
    SetRFSwitchStatus                        0x0801a44d   Thumb Code   134  subus.o(.text)
    SbudsCondition                           0x0801a4e9   Thumb Code   242  rf.o(.text)
    ChangeRFICStatus                         0x0801a5db   Thumb Code   142  rf.o(.text)
    Get_RF_Total_Result                      0x0801a669   Thumb Code   378  rf.o(.text)
    RF_Step_debug                            0x0801a7e3   Thumb Code   596  rf.o(.text)
    RF_Auto_Test                             0x0801aa37   Thumb Code   426  rf.o(.text)
    Type_RF_Test_Fun                         0x0801abe1   Thumb Code    64  rf.o(.text)
    Debug_RF_IC                              0x0801ac21   Thumb Code    36  rf.o(.text)
    ID_Test                                  0x0801acd1   Thumb Code   782  rf_id.o(.text)
    Type_RF_ID_Test_Fun                      0x0801afdf   Thumb Code   432  rf_id.o(.text)
    Set_Test_Satation                        0x0801b19d   Thumb Code    82  wtb.o(.text)
    Get_Soft_Start_Status                    0x0801b1ef   Thumb Code     6  wtb.o(.text)
    GetStationNum_Handler                    0x0801b1f5   Thumb Code    34  wtb.o(.text)
    Connect_Handler                          0x0801b217   Thumb Code    60  wtb.o(.text)
    Get_TestItem_Handler                     0x0801b253   Thumb Code    18  wtb.o(.text)
    Get_TestDetailItem_Handler               0x0801b265   Thumb Code    18  wtb.o(.text)
    SoftwareClearHandler                     0x0801b277   Thumb Code    42  wtb.o(.text)
    SoftwareStartTestHandler                 0x0801b2a1   Thumb Code   144  wtb.o(.text)
    SoftwareMCUISPHandler                    0x0801b331   Thumb Code    40  wtb.o(.text)
    SoftwareReadHandler                      0x0801b359   Thumb Code    14  wtb.o(.text)
    SoftwareResetHandler                     0x0801b367   Thumb Code    12  wtb.o(.text)
    WTB_Software_Cmd_Check                   0x0801b373   Thumb Code   246  wtb.o(.text)
    WTB_Software_Get_Scan_Result             0x0801b469   Thumb Code   832  wtb.o(.text)
    WTB_Software_Get_Save_Result             0x0801b7a9   Thumb Code   108  wtb.o(.text)
    ZDT_Software_Sotp                        0x0801b88d   Thumb Code    18  zdt.o(.text)
    ZDT_Software_Cmd_Check                   0x0801b89f   Thumb Code   150  zdt.o(.text)
    ZDT_Software_Get_Scan_Result             0x0801b935   Thumb Code   332  zdt.o(.text)
    ZDT_Software_Get_Save_Result             0x0801ba81   Thumb Code    96  zdt.o(.text)
    Get_Short_Num                            0x0801bc19   Thumb Code    58  data.o(.text)
    Get_Open_Num                             0x0801bc53   Thumb Code    56  data.o(.text)
    Get_Component_Num                        0x0801bc8b   Thumb Code    38  data.o(.text)
    Init_Test_data                           0x0801bcb1   Thumb Code   272  data.o(.text)
    Find_Insulation_Reuslt                   0x0801bdc1   Thumb Code   158  data.o(.text)
    WTB_Software_Upload_Test_Item            0x0801be5f   Thumb Code   750  data.o(.text)
    WTB_Software_Upload_Data                 0x0801c14d   Thumb Code   574  data.o(.text)
    ZDT_Software_Upload_Test_Item            0x0801c38b   Thumb Code   896  data.o(.text)
    ZDT_Software_Upload_Data                 0x0801c70b   Thumb Code   484  data.o(.text)
    UploadShortGroup                         0x0801c8ef   Thumb Code   116  data.o(.text)
    Upload_Test_Data                         0x0801c963   Thumb Code  2348  data.o(.text)
    Test_Previous_Wait_Time_Set              0x0801d2ad   Thumb Code   124  cmd.o(.text)
    Cmd_Dealy_Set                            0x0801d329   Thumb Code   134  cmd.o(.text)
    Software_Cmd_Hander                      0x0801d3af   Thumb Code    42  cmd.o(.text)
    __use_no_semihosting                     0x0801d409   Thumb Code     2  use_no_semi_2.o(.text)
    __c89vsprintf                            0x0801d40d   Thumb Code    32  c89vsprintf.o(.text)
    __2printf                                0x0801d431   Thumb Code    20  __2printf.o(.text)
    __2sprintf                               0x0801d449   Thumb Code    38  __2sprintf.o(.text)
    _printf_str                              0x0801d475   Thumb Code    82  _printf_str.o(.text)
    _printf_int_dec                          0x0801d4c9   Thumb Code   104  _printf_dec.o(.text)
    __printf                                 0x0801d541   Thumb Code   388  __printf_flags_ss_wp.o(.text)
    atoi                                     0x0801d6c9   Thumb Code    26  atoi.o(.text)
    strchr                                   0x0801d6e3   Thumb Code    20  strchr.o(.text)
    strstr                                   0x0801d6f7   Thumb Code    36  strstr.o(.text)
    memcmp                                   0x0801d71b   Thumb Code    88  memcmp.o(.text)
    strcpy                                   0x0801d773   Thumb Code    72  strcpy.o(.text)
    strlen                                   0x0801d7bb   Thumb Code    62  strlen.o(.text)
    strcat                                   0x0801d7f9   Thumb Code    24  strcat.o(.text)
    __aeabi_memcpy4                          0x0801d811   Thumb Code     0  rt_memcpy_w.o(.text)
    __aeabi_memcpy8                          0x0801d811   Thumb Code     0  rt_memcpy_w.o(.text)
    __rt_memcpy_w                            0x0801d811   Thumb Code   100  rt_memcpy_w.o(.text)
    _memcpy_lastbytes_aligned                0x0801d859   Thumb Code     0  rt_memcpy_w.o(.text)
    __aeabi_memset                           0x0801d875   Thumb Code    16  aeabi_memset.o(.text)
    __aeabi_memclr                           0x0801d885   Thumb Code     0  rt_memclr.o(.text)
    __rt_memclr                              0x0801d885   Thumb Code    68  rt_memclr.o(.text)
    _memset                                  0x0801d889   Thumb Code     0  rt_memclr.o(.text)
    __aeabi_memclr4                          0x0801d8c9   Thumb Code     0  rt_memclr_w.o(.text)
    __aeabi_memclr8                          0x0801d8c9   Thumb Code     0  rt_memclr_w.o(.text)
    __rt_memclr_w                            0x0801d8c9   Thumb Code    78  rt_memclr_w.o(.text)
    _memset_w                                0x0801d8cd   Thumb Code     0  rt_memclr_w.o(.text)
    strncpy                                  0x0801d917   Thumb Code    86  strncpy.o(.text)
    strcmp                                   0x0801d96d   Thumb Code   128  strcmpv7m.o(.text)
    __use_two_region_memory                  0x0801d9ed   Thumb Code     2  heapauxi.o(.text)
    __rt_heap_escrow$2region                 0x0801d9ef   Thumb Code     2  heapauxi.o(.text)
    __rt_heap_expand$2region                 0x0801d9f1   Thumb Code     2  heapauxi.o(.text)
    __I$use$semihosting                      0x0801d9f3   Thumb Code     0  use_no_semi.o(.text)
    __use_no_semihosting_swi                 0x0801d9f3   Thumb Code     2  use_no_semi.o(.text)
    __aeabi_errno_addr                       0x0801d9f5   Thumb Code     8  rt_errno_addr_intlibspace.o(.text)
    __errno$intlibspace                      0x0801d9f5   Thumb Code     0  rt_errno_addr_intlibspace.o(.text)
    __rt_errno_addr$intlibspace              0x0801d9f5   Thumb Code     0  rt_errno_addr_intlibspace.o(.text)
    __read_errno                             0x0801d9fd   Thumb Code    10  _rserrno.o(.text)
    __set_errno                              0x0801da07   Thumb Code    12  _rserrno.o(.text)
    _printf_pre_padding                      0x0801da13   Thumb Code    44  _printf_pad.o(.text)
    _printf_post_padding                     0x0801da3f   Thumb Code    34  _printf_pad.o(.text)
    _printf_truncate_signed                  0x0801da61   Thumb Code    18  _printf_truncate.o(.text)
    _printf_truncate_unsigned                0x0801da73   Thumb Code    18  _printf_truncate.o(.text)
    _printf_int_common                       0x0801da85   Thumb Code   178  _printf_intcommon.o(.text)
    _printf_charcount                        0x0801db37   Thumb Code    40  _printf_charcount.o(.text)
    __lib_sel_fp_printf                      0x0801db5f   Thumb Code     2  _printf_fp_dec.o(.text)
    _printf_fp_dec_real                      0x0801dd0d   Thumb Code   620  _printf_fp_dec.o(.text)
    _printf_char_common                      0x0801df83   Thumb Code    32  _printf_char_common.o(.text)
    _sputc                                   0x0801dfa9   Thumb Code    10  _sputc.o(.text)
    _printf_cs_common                        0x0801dfb3   Thumb Code    20  _printf_char.o(.text)
    _printf_char                             0x0801dfc7   Thumb Code    16  _printf_char.o(.text)
    _printf_string                           0x0801dfd7   Thumb Code     8  _printf_char.o(.text)
    _printf_char_file                        0x0801dfe1   Thumb Code    32  _printf_char_file.o(.text)
    _printf_wctomb                           0x0801e005   Thumb Code   182  _printf_wctomb.o(.text)
    _printf_longlong_dec                     0x0801e0c1   Thumb Code   108  _printf_longlong_dec.o(.text)
    _printf_longlong_oct                     0x0801e13d   Thumb Code    68  _printf_oct_int_ll.o(.text)
    _printf_int_oct                          0x0801e181   Thumb Code    24  _printf_oct_int_ll.o(.text)
    _printf_ll_oct                           0x0801e199   Thumb Code    12  _printf_oct_int_ll.o(.text)
    _printf_longlong_hex                     0x0801e1ad   Thumb Code    86  _printf_hex_int_ll_ptr.o(.text)
    _printf_int_hex                          0x0801e203   Thumb Code    28  _printf_hex_int_ll_ptr.o(.text)
    _printf_ll_hex                           0x0801e21f   Thumb Code    12  _printf_hex_int_ll_ptr.o(.text)
    _printf_hex_ptr                          0x0801e22b   Thumb Code    18  _printf_hex_int_ll_ptr.o(.text)
    __strtod_int                             0x0801e27d   Thumb Code    88  strtod.o(.text)
    strtol                                   0x0801e2e1   Thumb Code   112  strtol.o(.text)
    __user_libspace                          0x0801e351   Thumb Code     8  libspace.o(.text)
    __user_perproc_libspace                  0x0801e351   Thumb Code     0  libspace.o(.text)
    __user_perthread_libspace                0x0801e351   Thumb Code     0  libspace.o(.text)
    __rt_ctype_table                         0x0801e359   Thumb Code    16  rt_ctype_table.o(.text)
    __rt_locale                              0x0801e369   Thumb Code     8  rt_locale_intlibspace.o(.text)
    _ll_udiv10                               0x0801e371   Thumb Code   138  lludiv10.o(.text)
    isspace                                  0x0801e3fb   Thumb Code    18  isspace.o(.text)
    _printf_fp_infnan                        0x0801e40d   Thumb Code   112  _printf_fp_infnan.o(.text)
    _printf_lcs_common                       0x0801e48d   Thumb Code    20  _printf_wchar.o(.text)
    _printf_wchar                            0x0801e4a1   Thumb Code    16  _printf_wchar.o(.text)
    _printf_wstring                          0x0801e4b1   Thumb Code     8  _printf_wchar.o(.text)
    _sgetc                                   0x0801e4b9   Thumb Code    30  _sgetc.o(.text)
    _sbackspace                              0x0801e4d7   Thumb Code    34  _sgetc.o(.text)
    _strtoul                                 0x0801e4f9   Thumb Code   158  _strtoul.o(.text)
    _btod_etento                             0x0801e599   Thumb Code   216  bigflt0.o(.text)
    ferror                                   0x0801e675   Thumb Code     8  ferror.o(.text)
    _wcrtomb                                 0x0801e67d   Thumb Code    64  _wcrtomb.o(.text)
    __user_setup_stackheap                   0x0801e6bd   Thumb Code    74  sys_stackheap_outer.o(.text)
    _chval                                   0x0801e707   Thumb Code    28  _chval.o(.text)
    _scanf_really_real                       0x0801e921   Thumb Code   668  scanf_fp.o(.text)
    exit                                     0x0801ebc9   Thumb Code    12  exit.o(.text)
    _scanf_really_hex_real                   0x0801ebd5   Thumb Code   778  scanf_hexfp.o(.text)
    _scanf_really_infnan                     0x0801eeed   Thumb Code   292  scanf_infnan.o(.text)
    __aeabi_llsl                             0x0801f021   Thumb Code     0  llshl.o(.text)
    _ll_shift_l                              0x0801f021   Thumb Code    38  llshl.o(.text)
    _btod_d2e                                0x0801f047   Thumb Code    62  btod.o(CL$$btod_d2e)
    _d2e_denorm_low                          0x0801f085   Thumb Code    70  btod.o(CL$$btod_d2e_denorm_low)
    _d2e_norm_op1                            0x0801f0cb   Thumb Code    96  btod.o(CL$$btod_d2e_norm_op1)
    __btod_div_common                        0x0801f12b   Thumb Code   696  btod.o(CL$$btod_div_common)
    _e2d                                     0x0801f465   Thumb Code    80  btod.o(CL$$btod_e2d)
    _e2e                                     0x0801f4b9   Thumb Code   198  btod.o(CL$$btod_e2e)
    _btod_ediv                               0x0801f57f   Thumb Code    40  btod.o(CL$$btod_ediv)
    _btod_edivd                              0x0801f5a7   Thumb Code    40  btod.o(CL$$btod_edivd)
    _btod_emul                               0x0801f5cf   Thumb Code    40  btod.o(CL$$btod_emul)
    _btod_emuld                              0x0801f5f7   Thumb Code    40  btod.o(CL$$btod_emuld)
    __btod_mult_common                       0x0801f61f   Thumb Code   580  btod.o(CL$$btod_mult_common)
    __ARM_fpclassify                         0x0801f863   Thumb Code    40  fpclassify.o(i.__ARM_fpclassify)
    __kernel_poly                            0x0801f88b   Thumb Code   170  poly.o(i.__kernel_poly)
    __mathlib_dbl_divzero                    0x0801f935   Thumb Code    12  dunder.o(i.__mathlib_dbl_divzero)
    __mathlib_dbl_infnan2                    0x0801f945   Thumb Code     4  dunder.o(i.__mathlib_dbl_infnan2)
    __mathlib_dbl_invalid                    0x0801f949   Thumb Code    12  dunder.o(i.__mathlib_dbl_invalid)
    __mathlib_dbl_overflow                   0x0801f955   Thumb Code    14  dunder.o(i.__mathlib_dbl_overflow)
    __mathlib_dbl_underflow                  0x0801f965   Thumb Code    10  dunder.o(i.__mathlib_dbl_underflow)
    __mathlib_narrow                         0x0801f975   Thumb Code    16  narrow.o(i.__mathlib_narrow)
    __mathlib_tofloat                        0x0801f985   Thumb Code   132  narrow.o(i.__mathlib_tofloat)
    __support_ldexp                          0x0801fa0d   Thumb Code    22  ldexp.o(i.__support_ldexp)
    _is_digit                                0x0801fa23   Thumb Code    14  __printf_wp.o(i._is_digit)
    atof                                     0x0801fa31   Thumb Code    42  atof.o(i.atof)
    frexp                                    0x0801fa5d   Thumb Code    80  frexp.o(i.frexp)
    ldexp                                    0x0801fab5   Thumb Code   116  ldexp.o(i.ldexp)
    pow                                      0x0801fb29   Thumb Code  2478  pow.o(i.pow)
    sqrt                                     0x080204e1   Thumb Code    76  sqrt.o(i.sqrt)
    _get_lc_numeric                          0x0802052d   Thumb Code    44  lc_numeric_c.o(locale$$code)
    _get_lc_ctype                            0x08020559   Thumb Code    44  lc_ctype_c.o(locale$$code)
    __aeabi_d2f                              0x08020585   Thumb Code     0  d2f.o(x$fpl$d2f)
    _d2f                                     0x08020585   Thumb Code    98  d2f.o(x$fpl$d2f)
    __aeabi_dadd                             0x080205e9   Thumb Code     0  daddsub_clz.o(x$fpl$dadd)
    _dadd                                    0x080205e9   Thumb Code   332  daddsub_clz.o(x$fpl$dadd)
    __fpl_dcheck_NaN1                        0x08020739   Thumb Code    10  dcheck1.o(x$fpl$dcheck1)
    __fpl_dcmp_Inf                           0x08020749   Thumb Code    24  dcmpi.o(x$fpl$dcmpinf)
    __aeabi_ddiv                             0x08020761   Thumb Code     0  ddiv.o(x$fpl$ddiv)
    _ddiv                                    0x08020761   Thumb Code   552  ddiv.o(x$fpl$ddiv)
    __aeabi_cdcmpeq                          0x08020a11   Thumb Code     0  deqf.o(x$fpl$deqf)
    _dcmpeq                                  0x08020a11   Thumb Code   120  deqf.o(x$fpl$deqf)
    __aeabi_d2iz                             0x08020a89   Thumb Code     0  dfix.o(x$fpl$dfix)
    _dfix                                    0x08020a89   Thumb Code    94  dfix.o(x$fpl$dfix)
    __aeabi_d2uiz                            0x08020ae9   Thumb Code     0  dfixu.o(x$fpl$dfixu)
    _dfixu                                   0x08020ae9   Thumb Code    90  dfixu.o(x$fpl$dfixu)
    __aeabi_i2d                              0x08020b43   Thumb Code     0  dflt_clz.o(x$fpl$dflt)
    _dflt                                    0x08020b43   Thumb Code    46  dflt_clz.o(x$fpl$dflt)
    __aeabi_ui2d                             0x08020b71   Thumb Code     0  dflt_clz.o(x$fpl$dfltu)
    _dfltu                                   0x08020b71   Thumb Code    38  dflt_clz.o(x$fpl$dfltu)
    __aeabi_cdcmple                          0x08020b99   Thumb Code     0  dleqf.o(x$fpl$dleqf)
    _dcmple                                  0x08020b99   Thumb Code   120  dleqf.o(x$fpl$dleqf)
    __fpl_dcmple_InfNaN                      0x08020bfb   Thumb Code     0  dleqf.o(x$fpl$dleqf)
    __aeabi_dmul                             0x08020c11   Thumb Code     0  dmul.o(x$fpl$dmul)
    _dmul                                    0x08020c11   Thumb Code   332  dmul.o(x$fpl$dmul)
    __fpl_dnaninf                            0x08020d65   Thumb Code   156  dnaninf.o(x$fpl$dnaninf)
    __fpl_dretinf                            0x08020e01   Thumb Code    12  dretinf.o(x$fpl$dretinf)
    __aeabi_cdrcmple                         0x08020e0d   Thumb Code     0  drleqf.o(x$fpl$drleqf)
    _drcmple                                 0x08020e0d   Thumb Code   108  drleqf.o(x$fpl$drleqf)
    __aeabi_drsub                            0x08020e79   Thumb Code     0  daddsub_clz.o(x$fpl$drsb)
    _drsb                                    0x08020e79   Thumb Code    22  daddsub_clz.o(x$fpl$drsb)
    _dsqrt                                   0x08020e91   Thumb Code   456  dsqrt_noumaal.o(x$fpl$dsqrt)
    __aeabi_dsub                             0x0802105d   Thumb Code     0  daddsub_clz.o(x$fpl$dsub)
    _dsub                                    0x0802105d   Thumb Code   464  daddsub_clz.o(x$fpl$dsub)
    __aeabi_f2d                              0x08021231   Thumb Code     0  f2d.o(x$fpl$f2d)
    _f2d                                     0x08021231   Thumb Code    86  f2d.o(x$fpl$f2d)
    __aeabi_fadd                             0x08021289   Thumb Code     0  faddsub_clz.o(x$fpl$fadd)
    _fadd                                    0x08021289   Thumb Code   196  faddsub_clz.o(x$fpl$fadd)
    __fpl_fcmp_Inf                           0x0802134d   Thumb Code    24  fcmpi.o(x$fpl$fcmpinf)
    __aeabi_fdiv                             0x08021365   Thumb Code     0  fdiv.o(x$fpl$fdiv)
    _fdiv                                    0x08021365   Thumb Code   384  fdiv.o(x$fpl$fdiv)
    __aeabi_f2uiz                            0x080214e9   Thumb Code     0  ffixu.o(x$fpl$ffixu)
    _ffixu                                   0x080214e9   Thumb Code    62  ffixu.o(x$fpl$ffixu)
    __aeabi_i2f                              0x08021529   Thumb Code     0  fflt_clz.o(x$fpl$fflt)
    _fflt                                    0x08021529   Thumb Code    48  fflt_clz.o(x$fpl$fflt)
    __aeabi_ui2f                             0x08021559   Thumb Code     0  fflt_clz.o(x$fpl$ffltu)
    _ffltu                                   0x08021559   Thumb Code    38  fflt_clz.o(x$fpl$ffltu)
    __aeabi_cfcmple                          0x08021581   Thumb Code     0  fleqf.o(x$fpl$fleqf)
    _fcmple                                  0x08021581   Thumb Code   104  fleqf.o(x$fpl$fleqf)
    __fpl_fcmple_InfNaN                      0x080215d3   Thumb Code     0  fleqf.o(x$fpl$fleqf)
    __aeabi_fmul                             0x080215e9   Thumb Code     0  fmul.o(x$fpl$fmul)
    _fmul                                    0x080215e9   Thumb Code   258  fmul.o(x$fpl$fmul)
    __fpl_fnaninf                            0x080216eb   Thumb Code   140  fnaninf.o(x$fpl$fnaninf)
    __fpl_fretinf                            0x08021777   Thumb Code    10  fretinf.o(x$fpl$fretinf)
    __aeabi_cfrcmple                         0x08021781   Thumb Code     0  frleqf.o(x$fpl$frleqf)
    _frcmple                                 0x08021781   Thumb Code    98  frleqf.o(x$fpl$frleqf)
    __aeabi_fsub                             0x080217e5   Thumb Code     0  faddsub_clz.o(x$fpl$fsub)
    _fsub                                    0x080217e5   Thumb Code   234  faddsub_clz.o(x$fpl$fsub)
    _printf_fp_dec                           0x080218cf   Thumb Code     4  printf1.o(x$fpl$printf1)
    __fpl_return_NaN                         0x080218d3   Thumb Code   100  retnan.o(x$fpl$retnan)
    __ARM_scalbn                             0x08021937   Thumb Code    92  scalbn.o(x$fpl$scalbn)
    _scanf_real                              0x08021993   Thumb Code     4  scanf1.o(x$fpl$scanf1)
    _scanf_hex_real                          0x08021997   Thumb Code     4  scanf2.o(x$fpl$scanf2)
    _scanf_infnan                            0x0802199b   Thumb Code     4  scanf2.o(x$fpl$scanf2)
    __fpl_cmpreturn                          0x0802199f   Thumb Code    48  trapv.o(x$fpl$trapveneer)
    __I$use$fp                               0x080219ce   Number         0  usenofp.o(x$fpl$usenofp)
    Sensor_Name                              0x080219d0   Data         112  sup_fun.o(.constdata)
    HexTable                                 0x08021a54   Data          16  usart.o(.constdata)
    Item                                     0x08021b34   Data       26000  test_config.o(.constdata)
    Updown_Name                              0x080280c4   Data          48  base_config.o(.constdata)
    Software_Name                            0x080280f4   Data          48  base_config.o(.constdata)
    Switch_Board_Name                        0x08028124   Data          48  base_config.o(.constdata)
    Scan_Mode_Name                           0x08028154   Data          80  base_config.o(.constdata)
    version                                  0x08028238   Data          10  reg_config.o(.constdata)
    defult_Date                              0x08028242   Data          17  reg_config.o(.constdata)
    auchCRCLo                                0x08028348   Data         256  crc.o(.constdata)
    auchCRCHi                                0x08028448   Data         256  crc.o(.constdata)
    OpenGroup                                0x080285a8   Data        3096  open.o(.constdata)
    ShortGroup                               0x080291c0   Data        2580  short.o(.constdata)
    ColorRatio                               0x08029c50   Data         800  led.o(.constdata)
    __mathlib_zero                           0x0802a048   Data           8  qnan.o(.constdata)
    Region$$Table$$Base                      0x0802b094   Number         0  anon$$obj.o(Region$$Table)
    Region$$Table$$Limit                     0x0802b0b4   Number         0  anon$$obj.o(Region$$Table)
    __aeabi_HUGE_VAL                         0x0802b0b4   Data           0  fpconst.o(c$$dinf)
    __aeabi_HUGE_VALL                        0x0802b0b4   Data           0  fpconst.o(c$$dinf)
    __aeabi_INFINITY                         0x0802b0b4   Data           0  fpconst.o(c$$dinf)
    __dInf                                   0x0802b0b4   Data           0  fpconst.o(c$$dinf)
    __huge_val                               0x0802b0b4   Data           0  fpconst.o(c$$dinf)
    __ctype                                  0x0802b0e5   Data           0  lc_ctype_c.o(locale$$data)
    sys_cmd_tab                              0x20000018   Data          28  usmart.o(.data)
    usmart_nametab                           0x20000034   Data          80  usmart_config.o(.data)
    usmart_dev                               0x20000084   Data         244  usmart_config.o(.data)
    double_data                              0x20000178   Data           8  24cxx.o(.data)
    Relay_data                               0x20000180   Data           4  sup_fun.o(.data)
    AD7176_Rate_Set                          0x20000184   Data           1  ad7176.o(.data)
    lcdbase                                  0x20000185   Data           1  lcd3033.o(.data)
    lcdhang                                  0x20000186   Data           1  lcd3033.o(.data)
    lcdcon                                   0x20000187   Data           1  lcd3033.o(.data)
    Impedance_Test                           0x20000188   Data          48  ad5933.o(.data)
    COUNTER_Finish_Flag                      0x200001b8   Data           1  fre.o(.data)
    TIM3_COUNTER                             0x200001ba   Data           2  fre.o(.data)
    CNT                                      0x200001bc   Data           4  fre.o(.data)
    USART1_REV_CNT                           0x200001c0   Data           1  usart.o(.data)
    USART2_REV_CNT                           0x200001c1   Data           1  usart.o(.data)
    USART3_REV_CNT                           0x200001c2   Data           1  usart.o(.data)
    UART4_REV_CNT                            0x200001c3   Data           1  usart.o(.data)
    UART5_REV_CNT                            0x200001c4   Data           1  usart.o(.data)
    __stdout                                 0x200001c8   Data           4  usart.o(.data)
    counter                                  0x200001cc   Data           1  uart5.o(.data)
    SystemCoreClock                          0x200001d0   Data           4  system_stm32f10x.o(.data)
    AHBPrescTable                            0x200001d4   Data          16  system_stm32f10x.o(.data)
    ZhendingTechImage                        0x200001e4   Data        1024  other.o(.data)
    FAILImage                                0x200005e4   Data        1024  other.o(.data)
    PASSImage                                0x200009e4   Data        1024  other.o(.data)
    Gas_Keep_Time                            0x20000de4   Data           2  other.o(.data)
    Trigger_Gas                              0x20000de6   Data           1  other.o(.data)
    _Test_Mode                               0x20000de8   Data         160  menu.o(.data)
    Parameter_List                           0x20000e88   Data          40  menu.o(.data)
    Scan_Mode_Menu                           0x20000eb0   Data          85  barcode.o(.data)
    BarcodeReader_Name                       0x20000f05   Data          34  barcode.o(.data)
    Scan_List                                0x20000f28   Data          80  barcode.o(.data)
    Debug_List                               0x20000f78   Data          80  debug.o(.data)
    Type_fun                                 0x20000fc8   Data          64  list_test.o(.data)
    NetModeName                              0x20001008   Data          68  eth_config.o(.data)
    ipaddr                                   0x2000104c   Data           4  eth_config.o(.data)
    netmask                                  0x20001050   Data           4  eth_config.o(.data)
    gw                                       0x20001054   Data           4  eth_config.o(.data)
    filename                                 0x20001058   Data          17  reg_config.o(.data)
    ETH_default_Config                       0x2000106c   Data          32  reg_config.o(.data)
    Scan                                     0x2000108c   Data         124  reg_config.o(.data)
    ACT_Parameter                            0x20001108   Data        1728  reg_config.o(.data)
    Reg                                      0x200017c8   Data        2856  reg_config.o(.data)
    Sammple_List                             0x200022f0   Data          32  sample_notice.o(.data)
    dot_List                                 0x20002310   Data          96  dot.o(.data)
    Motor_Debug_Flag                         0x20002370   Data           1  motor.o(.data)
    usb_move_List                            0x20002380   Data          40  usb_move.o(.data)
    LEC_SET                                  0x200023a8   Data           4  modbus.o(.data)
    Lec_Ptr                                  0x200023ac   Data           4  modbus.o(.data)
    X_Axis                                   0x200023b0   Data          72  x_axis.o(.data)
    Debug_Set                                0x200023f8   Data           1  x_axis.o(.data)
    Rank_Num                                 0x200023f9   Data           1  x_axis.o(.data)
    NG_Rank_Num                              0x200023fa   Data           1  x_axis.o(.data)
    Eact_Take_Product_List                   0x200023fc   Data         104  x_axis.o(.data)
    Y_Axis                                   0x20002468   Data          72  y_axis.o(.data)
    Eact_UpDown_List                         0x200024b0   Data          40  y_axis.o(.data)
    Pin_Name                                 0x200024d8   Data        1540  os.o(.data)
    uF_Cap_Ratio                             0x20002ae0   Data           8  uf.o(.data)
    Vrms_Src                                 0x20002ae8   Data           8  uf.o(.data)
    ColorRatio_Num                           0x20002af0   Data           2  led.o(.data)
    USID                                     0x20002af2   Data           1  subus.o(.data)
    RF_Total_Result                          0x20002af7   Data           4  rf.o(.data)
    Host_Save_NG                             0x20002afc   Data          15  wtb.o(.data)
    Host_Save_OK                             0x20002b0b   Data          15  wtb.o(.data)
    RETEST_Comm                              0x20002b1a   Data          15  wtb.o(.data)
    MCUISP                                   0x20002b29   Data          20  wtb.o(.data)
    MCUISP_ACK                               0x20002b3d   Data          30  wtb.o(.data)
    Connect_Falg                             0x20002b5b   Data           1  wtb.o(.data)
    Soft_Start_Test                          0x20002b5c   Data           1  wtb.o(.data)
    Cmd_Handler                              0x20002b60   Data         312  wtb.o(.data)
    CmdNotice                                0x20002c98   Data          44  wtb.o(.data)
    Stop_Upper_Cmd                           0x20002cc4   Data           4  zdt.o(.data)
    ZDT_Upper_Computer_DOK_CMD               0x20002cc8   Data           4  zdt.o(.data)
    ZDT_Upper_Computer_DNG_CMD               0x20002ccc   Data           4  zdt.o(.data)
    lcdarray                                 0x20002cd0   Data          64  lcd3033.o(.bss)
    USART1_Buffer                            0x20002d10   Data         128  usart.o(.bss)
    USART2_Buffer                            0x20002d90   Data         128  usart.o(.bss)
    USART3_Buffer                            0x20002e10   Data         128  usart.o(.bss)
    UART4_Buffer                             0x20002e90   Data         128  usart.o(.bss)
    UART5_Buffer                             0x20002f10   Data         128  usart.o(.bss)
    Step_buffer                              0x20002f90   Data        1000  list_test.o(.bss)
    TestConfig                               0x20003378   Data          22  test_config.o(.bss)
    Item_Data                                0x20003390   Data        6000  test_config.o(.bss)
    NET_ETH                                  0x20004b00   Data          32  eth_config.o(.bss)
    Fixture                                  0x20004b20   Data          44  base_config.o(.bss)
    Motor                                    0x20004b50   Data          96  motor.o(.bss)
    Open_Data                                0x20004bb0   Data       31560  open.o(.bss)
    SHORT_RES                                0x2000c6f8   Data        2304  short.o(.bss)
    ErrorMsg                                 0x2000cff8   Data         258  short.o(.bss)
    Point                                    0x2000d0fa   Data         770  short.o(.bss)
    __libspace_start                         0x2000d3fc   Data          96  libspace.o(.bss)
    __temporary_stack_top$libspace           0x2000d45c   Data           0  libspace.o(.bss)



==============================================================================

Memory Map of the image

  Image Entry point : 0x08000131

  Load Region LR_IROM1 (Base: 0x08000000, Size: 0x0002deb8, Max: 0x00080000, ABSOLUTE, COMPRESSED[0x0002be10])

    Execution Region ER_IROM1 (Base: 0x08000000, Size: 0x0002b1e8, Max: 0x00080000, ABSOLUTE)

    Base Addr    Size         Type   Attr      Idx    E Section Name        Object

    0x08000000   0x00000130   Data   RO          517    RESET               startup_stm32f10x_hd.o
    0x08000130   0x00000008   Code   RO         1977  * !!!main             c_w.l(__main.o)
    0x08000138   0x00000034   Code   RO         2444    !!!scatter          c_w.l(__scatter.o)
    0x0800016c   0x0000005a   Code   RO         2442    !!dczerorl2         c_w.l(__dczerorl2.o)
    0x080001c6   0x00000002   PAD
    0x080001c8   0x0000001c   Code   RO         2446    !!handler_zi        c_w.l(__scatter_zi.o)
    0x080001e4   0x00000000   Code   RO         1948    .ARM.Collect$$_printf_percent$$00000000  c_w.l(_printf_percent.o)
    0x080001e4   0x00000006   Code   RO         2126    .ARM.Collect$$_printf_percent$$00000001  c_w.l(_printf_n.o)
    0x080001ea   0x00000006   Code   RO         2128    .ARM.Collect$$_printf_percent$$00000002  c_w.l(_printf_p.o)
    0x080001f0   0x00000006   Code   RO         1946    .ARM.Collect$$_printf_percent$$00000003  c_w.l(_printf_f.o)
    0x080001f6   0x00000006   Code   RO         2132    .ARM.Collect$$_printf_percent$$00000004  c_w.l(_printf_e.o)
    0x080001fc   0x00000006   Code   RO         1947    .ARM.Collect$$_printf_percent$$00000005  c_w.l(_printf_g.o)
    0x08000202   0x00000006   Code   RO         2133    .ARM.Collect$$_printf_percent$$00000006  c_w.l(_printf_a.o)
    0x08000208   0x0000000a   Code   RO         2138    .ARM.Collect$$_printf_percent$$00000007  c_w.l(_printf_ll.o)
    0x08000212   0x00000006   Code   RO         2130    .ARM.Collect$$_printf_percent$$00000008  c_w.l(_printf_i.o)
    0x08000218   0x00000006   Code   RO         1945    .ARM.Collect$$_printf_percent$$00000009  c_w.l(_printf_d.o)
    0x0800021e   0x00000006   Code   RO         2131    .ARM.Collect$$_printf_percent$$0000000A  c_w.l(_printf_u.o)
    0x08000224   0x00000006   Code   RO         2129    .ARM.Collect$$_printf_percent$$0000000B  c_w.l(_printf_o.o)
    0x0800022a   0x00000006   Code   RO         2127    .ARM.Collect$$_printf_percent$$0000000C  c_w.l(_printf_x.o)
    0x08000230   0x00000006   Code   RO         2135    .ARM.Collect$$_printf_percent$$0000000D  c_w.l(_printf_lli.o)
    0x08000236   0x00000006   Code   RO         2136    .ARM.Collect$$_printf_percent$$0000000E  c_w.l(_printf_lld.o)
    0x0800023c   0x00000006   Code   RO         2137    .ARM.Collect$$_printf_percent$$0000000F  c_w.l(_printf_llu.o)
    0x08000242   0x00000006   Code   RO         2142    .ARM.Collect$$_printf_percent$$00000010  c_w.l(_printf_llo.o)
    0x08000248   0x00000006   Code   RO         2143    .ARM.Collect$$_printf_percent$$00000011  c_w.l(_printf_llx.o)
    0x0800024e   0x0000000a   Code   RO         2139    .ARM.Collect$$_printf_percent$$00000012  c_w.l(_printf_l.o)
    0x08000258   0x00000006   Code   RO         2125    .ARM.Collect$$_printf_percent$$00000013  c_w.l(_printf_c.o)
    0x0800025e   0x00000006   Code   RO         1944    .ARM.Collect$$_printf_percent$$00000014  c_w.l(_printf_s.o)
    0x08000264   0x00000006   Code   RO         2140    .ARM.Collect$$_printf_percent$$00000015  c_w.l(_printf_lc.o)
    0x0800026a   0x00000006   Code   RO         2141    .ARM.Collect$$_printf_percent$$00000016  c_w.l(_printf_ls.o)
    0x08000270   0x00000004   Code   RO         2134    .ARM.Collect$$_printf_percent$$00000017  c_w.l(_printf_percent_end.o)
    0x08000274   0x00000002   Code   RO         2279    .ARM.Collect$$libinit$$00000000  c_w.l(libinit.o)
    0x08000276   0x00000000   Code   RO         2281    .ARM.Collect$$libinit$$00000002  c_w.l(libinit2.o)
    0x08000276   0x00000000   Code   RO         2283    .ARM.Collect$$libinit$$00000004  c_w.l(libinit2.o)
    0x08000276   0x00000000   Code   RO         2286    .ARM.Collect$$libinit$$0000000A  c_w.l(libinit2.o)
    0x08000276   0x00000000   Code   RO         2288    .ARM.Collect$$libinit$$0000000C  c_w.l(libinit2.o)
    0x08000276   0x00000000   Code   RO         2290    .ARM.Collect$$libinit$$0000000E  c_w.l(libinit2.o)
    0x08000276   0x00000006   Code   RO         2291    .ARM.Collect$$libinit$$0000000F  c_w.l(libinit2.o)
    0x0800027c   0x00000000   Code   RO         2293    .ARM.Collect$$libinit$$00000011  c_w.l(libinit2.o)
    0x0800027c   0x0000000c   Code   RO         2294    .ARM.Collect$$libinit$$00000012  c_w.l(libinit2.o)
    0x08000288   0x00000000   Code   RO         2295    .ARM.Collect$$libinit$$00000013  c_w.l(libinit2.o)
    0x08000288   0x00000000   Code   RO         2297    .ARM.Collect$$libinit$$00000015  c_w.l(libinit2.o)
    0x08000288   0x0000000a   Code   RO         2298    .ARM.Collect$$libinit$$00000016  c_w.l(libinit2.o)
    0x08000292   0x00000000   Code   RO         2299    .ARM.Collect$$libinit$$00000017  c_w.l(libinit2.o)
    0x08000292   0x00000000   Code   RO         2301    .ARM.Collect$$libinit$$00000019  c_w.l(libinit2.o)
    0x08000292   0x00000000   Code   RO         2303    .ARM.Collect$$libinit$$0000001B  c_w.l(libinit2.o)
    0x08000292   0x00000000   Code   RO         2305    .ARM.Collect$$libinit$$0000001D  c_w.l(libinit2.o)
    0x08000292   0x00000000   Code   RO         2307    .ARM.Collect$$libinit$$0000001F  c_w.l(libinit2.o)
    0x08000292   0x00000000   Code   RO         2309    .ARM.Collect$$libinit$$00000021  c_w.l(libinit2.o)
    0x08000292   0x00000000   Code   RO         2311    .ARM.Collect$$libinit$$00000023  c_w.l(libinit2.o)
    0x08000292   0x00000000   Code   RO         2313    .ARM.Collect$$libinit$$00000025  c_w.l(libinit2.o)
    0x08000292   0x00000000   Code   RO         2317    .ARM.Collect$$libinit$$0000002C  c_w.l(libinit2.o)
    0x08000292   0x00000000   Code   RO         2319    .ARM.Collect$$libinit$$0000002E  c_w.l(libinit2.o)
    0x08000292   0x00000000   Code   RO         2321    .ARM.Collect$$libinit$$00000030  c_w.l(libinit2.o)
    0x08000292   0x00000000   Code   RO         2323    .ARM.Collect$$libinit$$00000032  c_w.l(libinit2.o)
    0x08000292   0x00000002   Code   RO         2324    .ARM.Collect$$libinit$$00000033  c_w.l(libinit2.o)
    0x08000294   0x00000002   Code   RO         2381    .ARM.Collect$$libshutdown$$00000000  c_w.l(libshutdown.o)
    0x08000296   0x00000000   Code   RO         2403    .ARM.Collect$$libshutdown$$00000003  c_w.l(libshutdown2.o)
    0x08000296   0x00000000   Code   RO         2406    .ARM.Collect$$libshutdown$$00000006  c_w.l(libshutdown2.o)
    0x08000296   0x00000000   Code   RO         2409    .ARM.Collect$$libshutdown$$00000009  c_w.l(libshutdown2.o)
    0x08000296   0x00000000   Code   RO         2411    .ARM.Collect$$libshutdown$$0000000B  c_w.l(libshutdown2.o)
    0x08000296   0x00000000   Code   RO         2414    .ARM.Collect$$libshutdown$$0000000E  c_w.l(libshutdown2.o)
    0x08000296   0x00000002   Code   RO         2415    .ARM.Collect$$libshutdown$$0000000F  c_w.l(libshutdown2.o)
    0x08000298   0x00000000   Code   RO         2067    .ARM.Collect$$rtentry$$00000000  c_w.l(__rtentry.o)
    0x08000298   0x00000000   Code   RO         2188    .ARM.Collect$$rtentry$$00000002  c_w.l(__rtentry2.o)
    0x08000298   0x00000006   Code   RO         2200    .ARM.Collect$$rtentry$$00000004  c_w.l(__rtentry4.o)
    0x0800029e   0x00000000   Code   RO         2190    .ARM.Collect$$rtentry$$00000009  c_w.l(__rtentry2.o)
    0x0800029e   0x00000004   Code   RO         2191    .ARM.Collect$$rtentry$$0000000A  c_w.l(__rtentry2.o)
    0x080002a2   0x00000000   Code   RO         2193    .ARM.Collect$$rtentry$$0000000C  c_w.l(__rtentry2.o)
    0x080002a2   0x00000008   Code   RO         2194    .ARM.Collect$$rtentry$$0000000D  c_w.l(__rtentry2.o)
    0x080002aa   0x00000002   Code   RO         2327    .ARM.Collect$$rtexit$$00000000  c_w.l(rtexit.o)
    0x080002ac   0x00000000   Code   RO         2351    .ARM.Collect$$rtexit$$00000002  c_w.l(rtexit2.o)
    0x080002ac   0x00000004   Code   RO         2352    .ARM.Collect$$rtexit$$00000003  c_w.l(rtexit2.o)
    0x080002b0   0x00000006   Code   RO         2353    .ARM.Collect$$rtexit$$00000004  c_w.l(rtexit2.o)
    0x080002b6   0x00000002   PAD
    0x080002b8   0x000000dc   Code   RO            1    .text               misc.o
    0x08000394   0x0000018c   Code   RO          122    .text               stm32f10x_dac.o
    0x08000520   0x00000254   Code   RO          149    .text               stm32f10x_dma.o
    0x08000774   0x0000011c   Code   RO          164    .text               stm32f10x_exti.o
    0x08000890   0x0000035c   Code   RO          209    .text               stm32f10x_gpio.o
    0x08000bec   0x000003a4   Code   RO          266    .text               stm32f10x_rcc.o
    0x08000f90   0x00000e1a   Code   RO          325    .text               stm32f10x_tim.o
    0x08001daa   0x00000002   PAD
    0x08001dac   0x00000408   Code   RO          340    .text               stm32f10x_usart.o
    0x080021b4   0x000000d4   Code   RO          367    .text               delay.o
    0x08002288   0x00000adc   Code   RO          399    .text               usmart.o
    0x08002d64   0x00000048   Code   RO          448    .text               usmart_config.o
    0x08002dac   0x00000528   Code   RO          488    .text               usmart_str.o
    0x080032d4   0x00000040   Code   RO          518    .text               startup_stm32f10x_hd.o
    0x08003314   0x00000328   Code   RO          537    .text               dac.o
    0x0800363c   0x000003d8   Code   RO          565    .text               global.o
    0x08003a14   0x000001fc   Code   RO          589    .text               24cxx.o
    0x08003c10   0x00000b68   Code   RO          618    .text               sup_fun.o
    0x08004778   0x00000548   Code   RO          655    .text               ad7176.o
    0x08004cc0   0x00000518   Code   RO          680    .text               analog_switch.o
    0x080051d8   0x00000452   Code   RO          695    .text               lcd3033.o
    0x0800562a   0x00000002   PAD
    0x0800562c   0x00000a0c   Code   RO          721    .text               ad5933.o
    0x08006038   0x0000030c   Code   RO          743    .text               fre.o
    0x08006344   0x00000260   Code   RO          761    .text               myiic.o
    0x080065a4   0x00000514   Code   RO          773    .text               net_iic.o
    0x08006ab8   0x000005ac   Code   RO          791    .text               usart.o
    0x08007064   0x000001b4   Code   RO          812    .text               usart1.o
    0x08007218   0x000001d8   Code   RO          828    .text               usart2.o
    0x080073f0   0x000001e8   Code   RO          841    .text               usart3.o
    0x080075d8   0x000001ac   Code   RO          854    .text               uart4.o
    0x08007784   0x00000144   Code   RO          870    .text               uart5.o
    0x080078c8   0x000004e8   Code   RO          886    .text               main.o
    0x08007db0   0x0000001a   Code   RO          949    .text               stm32f10x_it.o
    0x08007dca   0x00000002   PAD
    0x08007dcc   0x000001e0   Code   RO          961    .text               system_stm32f10x.o
    0x08007fac   0x000007f8   Code   RO          979    .text               other.o
    0x080087a4   0x0000065c   Code   RO         1018    .text               menu.o
    0x08008e00   0x00000b5c   Code   RO         1052    .text               barcode.o
    0x0800995c   0x00000838   Code   RO         1076    .text               debug.o
    0x0800a194   0x00000200   Code   RO         1098    .text               hold_data.o
    0x0800a394   0x00000208   Code   RO         1117    .text               list_test.o
    0x0800a59c   0x00000418   Code   RO         1182    .text               test_config.o
    0x0800a9b4   0x00000e34   Code   RO         1210    .text               eth_config.o
    0x0800b7e8   0x000007a8   Code   RO         1230    .text               base_config.o
    0x0800bf90   0x00000234   Code   RO         1249    .text               block_check.o
    0x0800c1c4   0x00000be4   Code   RO         1268    .text               reg_config.o
    0x0800cda8   0x0000063c   Code   RO         1301    .text               sample_notice.o
    0x0800d3e4   0x00000608   Code   RO         1321    .text               dot.o
    0x0800d9ec   0x0000101c   Code   RO         1341    .text               motor.o
    0x0800ea08   0x000003b0   Code   RO         1361    .text               usb_move.o
    0x0800edb8   0x00000fd8   Code   RO         1382    .text               modbus.o
    0x0800fd90   0x0000003c   Code   RO         1405    .text               crc.o
    0x0800fdcc   0x00000a5c   Code   RO         1420    .text               x_axis.o
    0x08010828   0x00000910   Code   RO         1457    .text               y_axis.o
    0x08011138   0x000007ec   Code   RO         1474    .text               os.o
    0x08011924   0x000006b8   Code   RO         1496    .text               mr.o
    0x08011fdc   0x0000082c   Code   RO         1515    .text               kohm.o
    0x08012808   0x000010c8   Code   RO         1531    .text               open.o
    0x080138d0   0x00000ea8   Code   RO         1550    .text               short.o
    0x08014778   0x00000e10   Code   RO         1573    .text               diode.o
    0x08015588   0x00000d54   Code   RO         1589    .text               uf.o
    0x080162dc   0x000007f0   Code   RO         1607    .text               pf.o
    0x08016acc   0x00000458   Code   RO         1632    .text               os_study.o
    0x08016f24   0x000007f8   Code   RO         1648    .text               hall.o
    0x0801771c   0x0000068c   Code   RO         1661    .text               ldo.o
    0x08017da8   0x00000644   Code   RO         1677    .text               leakage_i.o
    0x080183ec   0x00000a40   Code   RO         1693    .text               led.o
    0x08018e2c   0x00000dbc   Code   RO         1715    .text               switch.o
    0x08019be8   0x000005b4   Code   RO         1746    .text               id.o
    0x0801a19c   0x0000034c   Code   RO         1761    .text               subus.o
    0x0801a4e8   0x000007e8   Code   RO         1779    .text               rf.o
    0x0801acd0   0x000004cc   Code   RO         1801    .text               rf_id.o
    0x0801b19c   0x000006f0   Code   RO         1826    .text               wtb.o
    0x0801b88c   0x0000038c   Code   RO         1852    .text               zdt.o
    0x0801bc18   0x00001694   Code   RO         1869    .text               data.o
    0x0801d2ac   0x0000015c   Code   RO         1889    .text               cmd.o
    0x0801d408   0x00000002   Code   RO         1906    .text               c_w.l(use_no_semi_2.o)
    0x0801d40a   0x00000002   PAD
    0x0801d40c   0x00000024   Code   RO         1908    .text               c_w.l(c89vsprintf.o)
    0x0801d430   0x00000018   Code   RO         1910    .text               c_w.l(__2printf.o)
    0x0801d448   0x0000002c   Code   RO         1912    .text               c_w.l(__2sprintf.o)
    0x0801d474   0x00000052   Code   RO         1920    .text               c_w.l(_printf_str.o)
    0x0801d4c6   0x00000002   PAD
    0x0801d4c8   0x00000078   Code   RO         1922    .text               c_w.l(_printf_dec.o)
    0x0801d540   0x00000188   Code   RO         1941    .text               c_w.l(__printf_flags_ss_wp.o)
    0x0801d6c8   0x0000001a   Code   RO         1949    .text               c_w.l(atoi.o)
    0x0801d6e2   0x00000014   Code   RO         1951    .text               c_w.l(strchr.o)
    0x0801d6f6   0x00000024   Code   RO         1953    .text               c_w.l(strstr.o)
    0x0801d71a   0x00000058   Code   RO         1955    .text               c_w.l(memcmp.o)
    0x0801d772   0x00000048   Code   RO         1957    .text               c_w.l(strcpy.o)
    0x0801d7ba   0x0000003e   Code   RO         1959    .text               c_w.l(strlen.o)
    0x0801d7f8   0x00000018   Code   RO         1961    .text               c_w.l(strcat.o)
    0x0801d810   0x00000064   Code   RO         1963    .text               c_w.l(rt_memcpy_w.o)
    0x0801d874   0x00000010   Code   RO         1965    .text               c_w.l(aeabi_memset.o)
    0x0801d884   0x00000044   Code   RO         1967    .text               c_w.l(rt_memclr.o)
    0x0801d8c8   0x0000004e   Code   RO         1969    .text               c_w.l(rt_memclr_w.o)
    0x0801d916   0x00000056   Code   RO         1971    .text               c_w.l(strncpy.o)
    0x0801d96c   0x00000080   Code   RO         1973    .text               c_w.l(strcmpv7m.o)
    0x0801d9ec   0x00000006   Code   RO         1975    .text               c_w.l(heapauxi.o)
    0x0801d9f2   0x00000002   Code   RO         2065    .text               c_w.l(use_no_semi.o)
    0x0801d9f4   0x00000008   Code   RO         2071    .text               c_w.l(rt_errno_addr_intlibspace.o)
    0x0801d9fc   0x00000016   Code   RO         2073    .text               c_w.l(_rserrno.o)
    0x0801da12   0x0000004e   Code   RO         2075    .text               c_w.l(_printf_pad.o)
    0x0801da60   0x00000024   Code   RO         2077    .text               c_w.l(_printf_truncate.o)
    0x0801da84   0x000000b2   Code   RO         2079    .text               c_w.l(_printf_intcommon.o)
    0x0801db36   0x00000028   Code   RO         2081    .text               c_w.l(_printf_charcount.o)
    0x0801db5e   0x0000041a   Code   RO         2083    .text               c_w.l(_printf_fp_dec.o)
    0x0801df78   0x00000030   Code   RO         2085    .text               c_w.l(_printf_char_common.o)
    0x0801dfa8   0x0000000a   Code   RO         2087    .text               c_w.l(_sputc.o)
    0x0801dfb2   0x0000002c   Code   RO         2089    .text               c_w.l(_printf_char.o)
    0x0801dfde   0x00000002   PAD
    0x0801dfe0   0x00000024   Code   RO         2091    .text               c_w.l(_printf_char_file.o)
    0x0801e004   0x000000bc   Code   RO         2093    .text               c_w.l(_printf_wctomb.o)
    0x0801e0c0   0x0000007c   Code   RO         2096    .text               c_w.l(_printf_longlong_dec.o)
    0x0801e13c   0x00000070   Code   RO         2102    .text               c_w.l(_printf_oct_int_ll.o)
    0x0801e1ac   0x00000094   Code   RO         2122    .text               c_w.l(_printf_hex_int_ll_ptr.o)
    0x0801e240   0x000000a0   Code   RO         2144    .text               c_w.l(strtod.o)
    0x0801e2e0   0x00000070   Code   RO         2146    .text               c_w.l(strtol.o)
    0x0801e350   0x00000008   Code   RO         2184    .text               c_w.l(libspace.o)
    0x0801e358   0x00000010   Code   RO         2202    .text               c_w.l(rt_ctype_table.o)
    0x0801e368   0x00000008   Code   RO         2207    .text               c_w.l(rt_locale_intlibspace.o)
    0x0801e370   0x0000008a   Code   RO         2209    .text               c_w.l(lludiv10.o)
    0x0801e3fa   0x00000012   Code   RO         2211    .text               c_w.l(isspace.o)
    0x0801e40c   0x00000080   Code   RO         2213    .text               c_w.l(_printf_fp_infnan.o)
    0x0801e48c   0x0000002c   Code   RO         2217    .text               c_w.l(_printf_wchar.o)
    0x0801e4b8   0x00000040   Code   RO         2219    .text               c_w.l(_sgetc.o)
    0x0801e4f8   0x0000009e   Code   RO         2221    .text               c_w.l(_strtoul.o)
    0x0801e596   0x00000002   PAD
    0x0801e598   0x000000dc   Code   RO         2223    .text               c_w.l(bigflt0.o)
    0x0801e674   0x00000008   Code   RO         2248    .text               c_w.l(ferror.o)
    0x0801e67c   0x00000040   Code   RO         2252    .text               c_w.l(_wcrtomb.o)
    0x0801e6bc   0x0000004a   Code   RO         2263    .text               c_w.l(sys_stackheap_outer.o)
    0x0801e706   0x0000001c   Code   RO         2265    .text               c_w.l(_chval.o)
    0x0801e722   0x00000002   PAD
    0x0801e724   0x000004a4   Code   RO         2267    .text               c_w.l(scanf_fp.o)
    0x0801ebc8   0x0000000c   Code   RO         2272    .text               c_w.l(exit.o)
    0x0801ebd4   0x00000318   Code   RO         2357    .text               c_w.l(scanf_hexfp.o)
    0x0801eeec   0x00000134   Code   RO         2359    .text               c_w.l(scanf_infnan.o)
    0x0801f020   0x00000026   Code   RO         2373    .text               c_w.l(llshl.o)
    0x0801f046   0x0000003e   Code   RO         2226    CL$$btod_d2e        c_w.l(btod.o)
    0x0801f084   0x00000046   Code   RO         2228    CL$$btod_d2e_denorm_low  c_w.l(btod.o)
    0x0801f0ca   0x00000060   Code   RO         2227    CL$$btod_d2e_norm_op1  c_w.l(btod.o)
    0x0801f12a   0x00000338   Code   RO         2236    CL$$btod_div_common  c_w.l(btod.o)
    0x0801f462   0x00000002   PAD
    0x0801f464   0x00000054   Code   RO         2234    CL$$btod_e2d        c_w.l(btod.o)
    0x0801f4b8   0x000000c6   Code   RO         2233    CL$$btod_e2e        c_w.l(btod.o)
    0x0801f57e   0x00000028   Code   RO         2230    CL$$btod_ediv       c_w.l(btod.o)
    0x0801f5a6   0x00000028   Code   RO         2232    CL$$btod_edivd      c_w.l(btod.o)
    0x0801f5ce   0x00000028   Code   RO         2229    CL$$btod_emul       c_w.l(btod.o)
    0x0801f5f6   0x00000028   Code   RO         2231    CL$$btod_emuld      c_w.l(btod.o)
    0x0801f61e   0x00000244   Code   RO         2235    CL$$btod_mult_common  c_w.l(btod.o)
    0x0801f862   0x00000028   Code   RO         2179    i.__ARM_fpclassify  m_ws.l(fpclassify.o)
    0x0801f88a   0x000000aa   Code   RO         2181    i.__kernel_poly     m_ws.l(poly.o)
    0x0801f934   0x00000010   Code   RO         2165    i.__mathlib_dbl_divzero  m_ws.l(dunder.o)
    0x0801f944   0x00000004   Code   RO         2167    i.__mathlib_dbl_infnan2  m_ws.l(dunder.o)
    0x0801f948   0x0000000c   Code   RO         2168    i.__mathlib_dbl_invalid  m_ws.l(dunder.o)
    0x0801f954   0x0000000e   Code   RO         2169    i.__mathlib_dbl_overflow  m_ws.l(dunder.o)
    0x0801f962   0x00000002   PAD
    0x0801f964   0x00000010   Code   RO         2171    i.__mathlib_dbl_underflow  m_ws.l(dunder.o)
    0x0801f974   0x00000010   Code   RO         2344    i.__mathlib_narrow  m_ws.l(narrow.o)
    0x0801f984   0x00000088   Code   RO         2345    i.__mathlib_tofloat  m_ws.l(narrow.o)
    0x0801fa0c   0x00000016   Code   RO         2383    i.__support_ldexp   m_ws.l(ldexp.o)
    0x0801fa22   0x0000000e   Code   RO         1934    i._is_digit         c_w.l(__printf_wp.o)
    0x0801fa30   0x0000002a   Code   RO         2044    i.atof              m_ws.l(atof.o)
    0x0801fa5a   0x00000002   PAD
    0x0801fa5c   0x00000058   Code   RO         2366    i.frexp             m_ws.l(frexp.o)
    0x0801fab4   0x00000074   Code   RO         2384    i.ldexp             m_ws.l(ldexp.o)
    0x0801fb28   0x000009b8   Code   RO         2048    i.pow               m_ws.l(pow.o)
    0x080204e0   0x0000004c   Code   RO         2058    i.sqrt              m_ws.l(sqrt.o)
    0x0802052c   0x0000002c   Code   RO         2255    locale$$code        c_w.l(lc_numeric_c.o)
    0x08020558   0x0000002c   Code   RO         2270    locale$$code        c_w.l(lc_ctype_c.o)
    0x08020584   0x00000062   Code   RO         1979    x$fpl$d2f           fz_ws.l(d2f.o)
    0x080205e6   0x00000002   PAD
    0x080205e8   0x00000150   Code   RO         1981    x$fpl$dadd          fz_ws.l(daddsub_clz.o)
    0x08020738   0x00000010   Code   RO         2257    x$fpl$dcheck1       fz_ws.l(dcheck1.o)
    0x08020748   0x00000018   Code   RO         2148    x$fpl$dcmpinf       fz_ws.l(dcmpi.o)
    0x08020760   0x000002b0   Code   RO         1988    x$fpl$ddiv          fz_ws.l(ddiv.o)
    0x08020a10   0x00000078   Code   RO         1991    x$fpl$deqf          fz_ws.l(deqf.o)
    0x08020a88   0x0000005e   Code   RO         1993    x$fpl$dfix          fz_ws.l(dfix.o)
    0x08020ae6   0x00000002   PAD
    0x08020ae8   0x0000005a   Code   RO         1997    x$fpl$dfixu         fz_ws.l(dfixu.o)
    0x08020b42   0x0000002e   Code   RO         2002    x$fpl$dflt          fz_ws.l(dflt_clz.o)
    0x08020b70   0x00000026   Code   RO         2001    x$fpl$dfltu         fz_ws.l(dflt_clz.o)
    0x08020b96   0x00000002   PAD
    0x08020b98   0x00000078   Code   RO         2007    x$fpl$dleqf         fz_ws.l(dleqf.o)
    0x08020c10   0x00000154   Code   RO         2009    x$fpl$dmul          fz_ws.l(dmul.o)
    0x08020d64   0x0000009c   Code   RO         2150    x$fpl$dnaninf       fz_ws.l(dnaninf.o)
    0x08020e00   0x0000000c   Code   RO         2152    x$fpl$dretinf       fz_ws.l(dretinf.o)
    0x08020e0c   0x0000006c   Code   RO         2011    x$fpl$drleqf        fz_ws.l(drleqf.o)
    0x08020e78   0x00000016   Code   RO         1982    x$fpl$drsb          fz_ws.l(daddsub_clz.o)
    0x08020e8e   0x00000002   PAD
    0x08020e90   0x000001cc   Code   RO         2154    x$fpl$dsqrt         fz_ws.l(dsqrt_noumaal.o)
    0x0802105c   0x000001d4   Code   RO         1983    x$fpl$dsub          fz_ws.l(daddsub_clz.o)
    0x08021230   0x00000056   Code   RO         2013    x$fpl$f2d           fz_ws.l(f2d.o)
    0x08021286   0x00000002   PAD
    0x08021288   0x000000c4   Code   RO         2015    x$fpl$fadd          fz_ws.l(faddsub_clz.o)
    0x0802134c   0x00000018   Code   RO         2156    x$fpl$fcmpinf       fz_ws.l(fcmpi.o)
    0x08021364   0x00000184   Code   RO         2022    x$fpl$fdiv          fz_ws.l(fdiv.o)
    0x080214e8   0x0000003e   Code   RO         2025    x$fpl$ffixu         fz_ws.l(ffixu.o)
    0x08021526   0x00000002   PAD
    0x08021528   0x00000030   Code   RO         2030    x$fpl$fflt          fz_ws.l(fflt_clz.o)
    0x08021558   0x00000026   Code   RO         2029    x$fpl$ffltu         fz_ws.l(fflt_clz.o)
    0x0802157e   0x00000002   PAD
    0x08021580   0x00000068   Code   RO         2035    x$fpl$fleqf         fz_ws.l(fleqf.o)
    0x080215e8   0x00000102   Code   RO         2037    x$fpl$fmul          fz_ws.l(fmul.o)
    0x080216ea   0x0000008c   Code   RO         2158    x$fpl$fnaninf       fz_ws.l(fnaninf.o)
    0x08021776   0x0000000a   Code   RO         2160    x$fpl$fretinf       fz_ws.l(fretinf.o)
    0x08021780   0x00000062   Code   RO         2039    x$fpl$frleqf        fz_ws.l(frleqf.o)
    0x080217e2   0x00000002   PAD
    0x080217e4   0x000000ea   Code   RO         2017    x$fpl$fsub          fz_ws.l(faddsub_clz.o)
    0x080218ce   0x00000004   Code   RO         2041    x$fpl$printf1       fz_ws.l(printf1.o)
    0x080218d2   0x00000064   Code   RO         2325    x$fpl$retnan        fz_ws.l(retnan.o)
    0x08021936   0x0000005c   Code   RO         2162    x$fpl$scalbn        fz_ws.l(scalbn.o)
    0x08021992   0x00000004   Code   RO         2261    x$fpl$scanf1        fz_ws.l(scanf1.o)
    0x08021996   0x00000008   Code   RO         2336    x$fpl$scanf2        fz_ws.l(scanf2.o)
    0x0802199e   0x00000030   Code   RO         2342    x$fpl$trapveneer    fz_ws.l(trapv.o)
    0x080219ce   0x00000000   Code   RO         2164    x$fpl$usenofp       fz_ws.l(usenofp.o)
    0x080219ce   0x00000002   PAD
    0x080219d0   0x00000084   Data   RO          619    .constdata          sup_fun.o
    0x08021a54   0x00000010   Data   RO          793    .constdata          usart.o
    0x08021a64   0x000000ce   Data   RO         1053    .constdata          barcode.o
    0x08021b32   0x00000002   PAD
    0x08021b34   0x00006590   Data   RO         1184    .constdata          test_config.o
    0x080280c4   0x00000124   Data   RO         1232    .constdata          base_config.o
    0x080281e8   0x00000050   Data   RO         1250    .constdata          block_check.o
    0x08028238   0x0000004c   Data   RO         1269    .constdata          reg_config.o
    0x08028284   0x00000022   Data   RO         1302    .constdata          sample_notice.o
    0x080282a6   0x00000002   PAD
    0x080282a8   0x00000046   Data   RO         1322    .constdata          dot.o
    0x080282ee   0x00000002   PAD
    0x080282f0   0x00000022   Data   RO         1343    .constdata          motor.o
    0x08028312   0x00000002   PAD
    0x08028314   0x00000022   Data   RO         1362    .constdata          usb_move.o
    0x08028336   0x00000002   PAD
    0x08028338   0x00000010   Data   RO         1383    .constdata          modbus.o
    0x08028348   0x00000200   Data   RO         1406    .constdata          crc.o
    0x08028548   0x00000022   Data   RO         1421    .constdata          x_axis.o
    0x0802856a   0x00000002   PAD
    0x0802856c   0x00000022   Data   RO         1458    .constdata          y_axis.o
    0x0802858e   0x00000002   PAD
    0x08028590   0x00000018   Data   RO         1516    .constdata          kohm.o
    0x080285a8   0x00000c18   Data   RO         1533    .constdata          open.o
    0x080291c0   0x00000a14   Data   RO         1552    .constdata          short.o
    0x08029bd4   0x00000004   PAD
    0x08029bd8   0x00000030   Data   RO         1574    .constdata          diode.o
    0x08029c08   0x00000018   Data   RO         1649    .constdata          hall.o
    0x08029c20   0x00000018   Data   RO         1662    .constdata          ldo.o
    0x08029c38   0x00000018   Data   RO         1678    .constdata          leakage_i.o
    0x08029c50   0x00000320   Data   RO         1694    .constdata          led.o
    0x08029f70   0x0000000e   Data   RO         1716    .constdata          switch.o
    0x08029f7e   0x00000011   Data   RO         1942    .constdata          c_w.l(__printf_flags_ss_wp.o)
    0x08029f8f   0x00000001   PAD
    0x08029f90   0x00000088   Data   RO         2049    .constdata          m_ws.l(pow.o)
    0x0802a018   0x00000008   Data   RO         2094    .constdata          c_w.l(_printf_wctomb.o)
    0x0802a020   0x00000028   Data   RO         2123    .constdata          c_w.l(_printf_hex_int_ll_ptr.o)
    0x0802a048   0x00000008   Data   RO         2183    .constdata          m_ws.l(qnan.o)
    0x0802a050   0x00000094   Data   RO         2224    .constdata          c_w.l(bigflt0.o)
    0x0802a0e4   0x00000028   Data   RO          400    .conststring        usmart.o
    0x0802a10c   0x0000017b   Data   RO          449    .conststring        usmart_config.o
    0x0802a287   0x00000001   PAD
    0x0802a288   0x00000025   Data   RO          620    .conststring        sup_fun.o
    0x0802a2ad   0x00000003   PAD
    0x0802a2b0   0x000000cf   Data   RO         1019    .conststring        menu.o
    0x0802a37f   0x00000001   PAD
    0x0802a380   0x0000008f   Data   RO         1054    .conststring        barcode.o
    0x0802a40f   0x00000001   PAD
    0x0802a410   0x0000008f   Data   RO         1077    .conststring        debug.o
    0x0802a49f   0x00000001   PAD
    0x0802a4a0   0x00000028   Data   RO         1185    .conststring        test_config.o
    0x0802a4c8   0x00000521   Data   RO         1270    .conststring        reg_config.o
    0x0802a9e9   0x00000003   PAD
    0x0802a9ec   0x0000002f   Data   RO         1303    .conststring        sample_notice.o
    0x0802aa1b   0x00000001   PAD
    0x0802aa1c   0x000000af   Data   RO         1323    .conststring        dot.o
    0x0802aacb   0x00000001   PAD
    0x0802aacc   0x0000003f   Data   RO         1363    .conststring        usb_move.o
    0x0802ab0b   0x00000001   PAD
    0x0802ab0c   0x000000c5   Data   RO         1422    .conststring        x_axis.o
    0x0802abd1   0x00000003   PAD
    0x0802abd4   0x00000035   Data   RO         1459    .conststring        y_axis.o
    0x0802ac09   0x00000003   PAD
    0x0802ac0c   0x0000034f   Data   RO         1475    .conststring        os.o
    0x0802af5b   0x00000001   PAD
    0x0802af5c   0x000000cd   Data   RO         1827    .conststring        wtb.o
    0x0802b029   0x00000003   PAD
    0x0802b02c   0x00000016   Data   RO         1853    .conststring        zdt.o
    0x0802b042   0x00000002   PAD
    0x0802b044   0x0000004d   Data   RO         1870    .conststring        data.o
    0x0802b091   0x00000003   PAD
    0x0802b094   0x00000020   Data   RO         2440    Region$$Table       anon$$obj.o
    0x0802b0b4   0x00000008   Data   RO         2331    c$$dinf             fz_ws.l(fpconst.o)
    0x0802b0bc   0x0000001c   Data   RO         2254    locale$$data        c_w.l(lc_numeric_c.o)
    0x0802b0d8   0x00000110   Data   RO         2269    locale$$data        c_w.l(lc_ctype_c.o)


    Execution Region RW_IRAM1 (Base: 0x20000000, Size: 0x0000e060, Max: 0x00010000, ABSOLUTE, COMPRESSED[0x00000c28])

    Base Addr    Size         Type   Attr      Idx    E Section Name        Object

    0x20000000   0x00000014   Data   RW          267    .data               stm32f10x_rcc.o
    0x20000014   0x00000004   Data   RW          368    .data               delay.o
    0x20000018   0x0000001c   Data   RW          401    .data               usmart.o
    0x20000034   0x00000144   Data   RW          450    .data               usmart_config.o
    0x20000178   0x00000008   Data   RW          590    .data               24cxx.o
    0x20000180   0x00000004   Data   RW          621    .data               sup_fun.o
    0x20000184   0x00000001   Data   RW          656    .data               ad7176.o
    0x20000185   0x00000003   Data   RW          697    .data               lcd3033.o
    0x20000188   0x00000030   Data   RW          722    .data               ad5933.o
    0x200001b8   0x00000008   Data   RW          744    .data               fre.o
    0x200001c0   0x0000000c   Data   RW          794    .data               usart.o
    0x200001cc   0x00000001   Data   RW          871    .data               uart5.o
    0x200001cd   0x00000003   PAD
    0x200001d0   0x00000014   Data   RW          962    .data               system_stm32f10x.o
    0x200001e4   0x00000c03   Data   RW          980    .data               other.o
    0x20000de7   0x00000001   PAD
    0x20000de8   0x000000c8   Data   RW         1020    .data               menu.o
    0x20000eb0   0x000000c8   Data   RW         1055    .data               barcode.o
    0x20000f78   0x00000050   Data   RW         1078    .data               debug.o
    0x20000fc8   0x00000040   Data   RW         1119    .data               list_test.o
    0x20001008   0x00000050   Data   RW         1212    .data               eth_config.o
    0x20001058   0x00001298   Data   RW         1271    .data               reg_config.o
    0x200022f0   0x00000020   Data   RW         1304    .data               sample_notice.o
    0x20002310   0x00000060   Data   RW         1324    .data               dot.o
    0x20002370   0x00000010   Data   RW         1344    .data               motor.o
    0x20002380   0x00000028   Data   RW         1364    .data               usb_move.o
    0x200023a8   0x00000008   Data   RW         1384    .data               modbus.o
    0x200023b0   0x000000b4   Data   RW         1423    .data               x_axis.o
    0x20002464   0x00000004   PAD
    0x20002468   0x00000070   Data   RW         1460    .data               y_axis.o
    0x200024d8   0x00000604   Data   RW         1476    .data               os.o
    0x20002adc   0x00000004   PAD
    0x20002ae0   0x00000010   Data   RW         1590    .data               uf.o
    0x20002af0   0x00000002   Data   RW         1695    .data               led.o
    0x20002af2   0x00000001   Data   RW         1762    .data               subus.o
    0x20002af3   0x00000008   Data   RW         1780    .data               rf.o
    0x20002afb   0x00000001   PAD
    0x20002afc   0x000001c8   Data   RW         1828    .data               wtb.o
    0x20002cc4   0x0000000c   Data   RW         1854    .data               zdt.o
    0x20002cd0   0x00000040   Zero   RW          696    .bss                lcd3033.o
    0x20002d10   0x00000280   Zero   RW          792    .bss                usart.o
    0x20002f90   0x000003e8   Zero   RW         1118    .bss                list_test.o
    0x20003378   0x00001788   Zero   RW         1183    .bss                test_config.o
    0x20004b00   0x00000020   Zero   RW         1211    .bss                eth_config.o
    0x20004b20   0x0000002c   Zero   RW         1231    .bss                base_config.o
    0x20004b4c   0x00000004   PAD
    0x20004b50   0x00000060   Zero   RW         1342    .bss                motor.o
    0x20004bb0   0x00007b48   Zero   RW         1532    .bss                open.o
    0x2000c6f8   0x00000d04   Zero   RW         1551    .bss                short.o
    0x2000d3fc   0x00000060   Zero   RW         2185    .bss                c_w.l(libspace.o)
    0x2000d45c   0x00000004   PAD
    0x2000d460   0x00000400   Zero   RW          516    HEAP                startup_stm32f10x_hd.o
    0x2000d860   0x00000800   Zero   RW          515    STACK               startup_stm32f10x_hd.o


==============================================================================

Image component sizes


      Code (inc. data)   RO Data    RW Data    ZI Data      Debug   Object Name

       508         12          0          8          0       4569   24cxx.o
      2572        222          0         48          0       7683   ad5933.o
      1352         98          0          1          0      19696   ad7176.o
      1304         94          0          0          0       3934   analog_switch.o
      2908        656        349        200          0       6495   barcode.o
      1960        746        292          0         44       4418   base_config.o
       564         72         80          0          0       1404   block_check.o
       348         48          0          0          0       1352   cmd.o
         0          0          0          0          0         32   core_cm3.o
        60         10        512          0          0       1201   crc.o
       808         74          0          0          0       1834   dac.o
      5780        728         77          0          0       5641   data.o
      2104        644        143         80          0       2624   debug.o
       212         18          0          4          0       1031   delay.o
      3600        244         48          0          0       5375   diode.o
      1544        374        245         96          0       3073   dot.o
      3636        768          0         80         32       9114   eth_config.o
       780         60          0          8          0       2979   fre.o
       984         32          0          0          0       3215   global.o
      2040        156         24          0          0       3689   hall.o
       512         20          0          0          0       1221   hold_data.o
      1460        246          0          0          0       2639   id.o
      2092        176         24          0          0       3475   kohm.o
      1106         44          0          3         64       4928   lcd3033.o
      1676        120         24          0          0       3095   ldo.o
      1604        116         24          0          0       3268   leakage_i.o
      2624        178        800          2          0       4780   led.o
       520         56          0         64       1000       2475   list_test.o
      1256        176          0          0          0       3563   main.o
      1628        282        207        200          0       5445   menu.o
       220         22          0          0          0     234297   misc.o
      4056        162         16          8          0      11646   modbus.o
      4124        482         34         16         96       7801   motor.o
      1720        202          0          0          0       2521   mr.o
       608         32          0          0          0       1743   myiic.o
      1300         24          0          0          0       5050   net_iic.o
      4296        410       3096          0      31560       6257   open.o
      2028        324        847       1540          0       4196   os.o
      1112        184          0          0          0       2904   os_study.o
      2040        128          0       3075          0       4889   other.o
      2032        192          0          0          0       3494   pf.o
      3044        334       1389       4760          0       9695   reg_config.o
      2024        366          0          8          0       3884   rf.o
      1228        130          0          0          0       2050   rf_id.o
      1596        312         81         32          0       3381   sample_notice.o
      3752        402       2580          0       3332       6345   short.o
        64         26        304          0       3072        804   startup_stm32f10x_hd.o
       396          6          0          0          0       8370   stm32f10x_dac.o
       596          8          0          0          0      14190   stm32f10x_dma.o
       284         10          0          0          0       4431   stm32f10x_exti.o
       860         38          0          0          0       5661   stm32f10x_gpio.o
        26          0          0          0          0       1206   stm32f10x_it.o
       932         36          0         20          0       8840   stm32f10x_rcc.o
      3610         88          0          0          0      42504   stm32f10x_tim.o
      1032         22          0          0          0       8388   stm32f10x_usart.o
       844         22          0          1          0       4925   subus.o
      2920        450        169          4          0       6172   sup_fun.o
      3516        230         14          0          0       4779   switch.o
       480         38          0         20          0       1815   system_stm32f10x.o
      1048         14      26040          0       6024       4125   test_config.o
       428         20          0          0          0       1062   uart4.o
       324         26          0          1          0       1120   uart5.o
      3412        434          0         16          0       4981   uf.o
      1452        128         16         12        640       6899   usart.o
       436         24          0          0          0       1059   usart1.o
       472         30          0          0          0       1087   usart2.o
       488         26          0          0          0       1079   usart3.o
       944        136         97         40          0       2927   usb_move.o
      2780        862         40         28          0       4863   usmart.o
        72         34        379        324          0       2323   usmart_config.o
      1320         12          0          0          0       5089   usmart_str.o
      1776        514        205        456          0       5855   wtb.o
      2652        416        231        180          0       6025   x_axis.o
      2320        368         87        112          0       3718   y_axis.o
       908        312         22         12          0       2728   zdt.o

    ----------------------------------------------------------------------
    119120      14506      38574      11472      45868     601426   Object Totals
         0          0         32          0          0          0   (incl. Generated)
         6          0         46         13          4          0   (incl. Padding)

    ----------------------------------------------------------------------

      Code (inc. data)   RO Data    RW Data    ZI Data      Debug   Library Member Name

        24          4          0          0          0         84   __2printf.o
        44          6          0          0          0         84   __2sprintf.o
        90          0          0          0          0          0   __dczerorl2.o
         8          0          0          0          0         68   __main.o
       392          4         17          0          0         92   __printf_flags_ss_wp.o
        14          0          0          0          0         68   __printf_wp.o
         0          0          0          0          0          0   __rtentry.o
        12          0          0          0          0          0   __rtentry2.o
         6          0          0          0          0          0   __rtentry4.o
        52          8          0          0          0          0   __scatter.o
        28          0          0          0          0          0   __scatter_zi.o
        28          0          0          0          0         68   _chval.o
         6          0          0          0          0          0   _printf_a.o
         6          0          0          0          0          0   _printf_c.o
        44          0          0          0          0        108   _printf_char.o
        48          6          0          0          0         96   _printf_char_common.o
        36          4          0          0          0         80   _printf_char_file.o
        40          0          0          0          0         68   _printf_charcount.o
         6          0          0          0          0          0   _printf_d.o
       120         16          0          0          0         92   _printf_dec.o
         6          0          0          0          0          0   _printf_e.o
         6          0          0          0          0          0   _printf_f.o
      1050          0          0          0          0        216   _printf_fp_dec.o
       128         16          0          0          0         84   _printf_fp_infnan.o
         6          0          0          0          0          0   _printf_g.o
       148          4         40          0          0        160   _printf_hex_int_ll_ptr.o
         6          0          0          0          0          0   _printf_i.o
       178          0          0          0          0         88   _printf_intcommon.o
        10          0          0          0          0          0   _printf_l.o
         6          0          0          0          0          0   _printf_lc.o
        10          0          0          0          0          0   _printf_ll.o
         6          0          0          0          0          0   _printf_lld.o
         6          0          0          0          0          0   _printf_lli.o
         6          0          0          0          0          0   _printf_llo.o
         6          0          0          0          0          0   _printf_llu.o
         6          0          0          0          0          0   _printf_llx.o
       124         16          0          0          0         92   _printf_longlong_dec.o
         6          0          0          0          0          0   _printf_ls.o
         6          0          0          0          0          0   _printf_n.o
         6          0          0          0          0          0   _printf_o.o
       112          8          0          0          0        124   _printf_oct_int_ll.o
         6          0          0          0          0          0   _printf_p.o
        78          0          0          0          0        108   _printf_pad.o
         0          0          0          0          0          0   _printf_percent.o
         4          0          0          0          0          0   _printf_percent_end.o
         6          0          0          0          0          0   _printf_s.o
        82          0          0          0          0         80   _printf_str.o
        36          0          0          0          0         84   _printf_truncate.o
         6          0          0          0          0          0   _printf_u.o
        44          0          0          0          0        108   _printf_wchar.o
       188          6          8          0          0         92   _printf_wctomb.o
         6          0          0          0          0          0   _printf_x.o
        22          0          0          0          0        100   _rserrno.o
        64          0          0          0          0         84   _sgetc.o
        10          0          0          0          0         68   _sputc.o
       158          0          0          0          0         92   _strtoul.o
        64          0          0          0          0         92   _wcrtomb.o
        16          0          0          0          0         68   aeabi_memset.o
        26          0          0          0          0         80   atoi.o
       220          4        148          0          0         96   bigflt0.o
      2074        132          0          0          0        940   btod.o
        36          4          0          0          0         76   c89vsprintf.o
        12          0          0          0          0         72   exit.o
         8          0          0          0          0         68   ferror.o
         6          0          0          0          0        152   heapauxi.o
        18          0          0          0          0         76   isspace.o
        44         10        272          0          0         76   lc_ctype_c.o
        44         10         28          0          0         76   lc_numeric_c.o
         2          0          0          0          0          0   libinit.o
        30          0          0          0          0          0   libinit2.o
         2          0          0          0          0          0   libshutdown.o
         2          0          0          0          0          0   libshutdown2.o
         8          4          0          0         96         68   libspace.o
        38          0          0          0          0         68   llshl.o
       138          0          0          0          0         80   lludiv10.o
        88          0          0          0          0         76   memcmp.o
        16          4          0          0          0         76   rt_ctype_table.o
         8          4          0          0          0         68   rt_errno_addr_intlibspace.o
         8          4          0          0          0         68   rt_locale_intlibspace.o
        68          0          0          0          0         68   rt_memclr.o
        78          0          0          0          0         80   rt_memclr_w.o
       100          0          0          0          0         80   rt_memcpy_w.o
         2          0          0          0          0          0   rtexit.o
        10          0          0          0          0          0   rtexit2.o
      1188         12          0          0          0        148   scanf_fp.o
       792         14          0          0          0        100   scanf_hexfp.o
       308         16          0          0          0        100   scanf_infnan.o
        24          0          0          0          0         68   strcat.o
        20          0          0          0          0         68   strchr.o
       128          0          0          0          0         68   strcmpv7m.o
        72          0          0          0          0         80   strcpy.o
        62          0          0          0          0         76   strlen.o
        86          0          0          0          0         76   strncpy.o
        36          0          0          0          0         80   strstr.o
       160         12          0          0          0        120   strtod.o
       112          0          0          0          0         88   strtol.o
        74          0          0          0          0         80   sys_stackheap_outer.o
         2          0          0          0          0         68   use_no_semi.o
         2          0          0          0          0         68   use_no_semi_2.o
        98          4          0          0          0         92   d2f.o
       826         16          0          0          0        348   daddsub_clz.o
        16          4          0          0          0         68   dcheck1.o
        24          0          0          0          0         68   dcmpi.o
       688        140          0          0          0        208   ddiv.o
       120          4          0          0          0         92   deqf.o
        94          4          0          0          0         92   dfix.o
        90          4          0          0          0         92   dfixu.o
        84          0          0          0          0        136   dflt_clz.o
       120          4          0          0          0         92   dleqf.o
       340         12          0          0          0        104   dmul.o
       156          4          0          0          0         92   dnaninf.o
        12          0          0          0          0         68   dretinf.o
       108          0          0          0          0         80   drleqf.o
       460         56          0          0          0        120   dsqrt_noumaal.o
        86          4          0          0          0         84   f2d.o
       430          8          0          0          0        168   faddsub_clz.o
        24          0          0          0          0         68   fcmpi.o
       388         76          0          0          0         96   fdiv.o
        62          4          0          0          0         84   ffixu.o
        86          0          0          0          0        136   fflt_clz.o
       104          4          0          0          0         84   fleqf.o
       258          4          0          0          0         84   fmul.o
       140          4          0          0          0         84   fnaninf.o
         0          0          8          0          0          0   fpconst.o
        10          0          0          0          0         68   fretinf.o
        98          0          0          0          0         68   frleqf.o
         4          0          0          0          0         68   printf1.o
       100          0          0          0          0         68   retnan.o
        92          0          0          0          0         68   scalbn.o
         4          0          0          0          0         68   scanf1.o
         8          0          0          0          0         84   scanf2.o
        48          0          0          0          0         68   trapv.o
         0          0          0          0          0          0   usenofp.o
        42          0          0          0          0         84   atof.o
        62         10          0          0          0        340   dunder.o
        40          0          0          0          0         68   fpclassify.o
        88          8          0          0          0         76   frexp.o
       138          0          0          0          0        160   ldexp.o
       152          4          0          0          0        168   narrow.o
       170          0          0          0          0         96   poly.o
      2488        190        136          0          0        300   pow.o
         0          0          8          0          0          0   qnan.o
        76          0          0          0          0         84   sqrt.o

    ----------------------------------------------------------------------
     18256        898        666          0        100      10956   Library Totals
        38          2          1          0          4          0   (incl. Padding)

    ----------------------------------------------------------------------

      Code (inc. data)   RO Data    RW Data    ZI Data      Debug   Library Name

      9784        328        513          0         96       6380   c_w.l
      5178        356          8          0          0       3200   fz_ws.l
      3256        212        144          0          0       1376   m_ws.l

    ----------------------------------------------------------------------
     18256        898        666          0        100      10956   Library Totals

    ----------------------------------------------------------------------

==============================================================================


      Code (inc. data)   RO Data    RW Data    ZI Data      Debug   

    137376      15404      39240      11472      45968     600574   Grand Totals
    137376      15404      39240       3112      45968     600574   ELF Image Totals (compressed)
    137376      15404      39240       3112          0          0   ROM Totals

==============================================================================

    Total RO  Size (Code + RO Data)               176616 ( 172.48kB)
    Total RW  Size (RW Data + ZI Data)             57440 (  56.09kB)
    Total ROM Size (Code + RO Data + RW Data)     179728 ( 175.52kB)

==============================================================================

